
 Start         Length     Name                   Class
 0001:00000000 00032228H .text                   CODE
 0002:00000000 00000070H .data                   DATA
 0002:00000070 0000011DH .bss                    BSS


Detailed map of segments

 0001:00000000 0000013E C=CODE     S=.text    G=(none)   M=System   ACBP=A9
 0001:00000140 0000020C C=CODE     S=.text    G=(none)   M=SysInit  ACBP=A9
 0001:0000034C 00000050 C=CODE     S=.text    G=(none)   M=Windows  ACBP=A9
 0001:0000039C 00000038 C=CODE     S=.text    G=(none)   M=Messages ACBP=A9
 0001:000003D4 0000006E C=CODE     S=.text    G=(none)   M=SysUtils ACBP=A9
 0001:00000444 0000000E C=CODE     S=.text    G=(none)   M=SysConst ACBP=A9
 0001:00000454 00000066 C=CODE     S=.text    G=(none)   M=Classes  ACBP=A9
 0001:000004BC 0000000E C=CODE     S=.text    G=(none)   M=ActiveX  ACBP=A9
 0001:000004CC 0000000E C=CODE     S=.text    G=(none)   M=TypInfo  ACBP=A9
 0001:000004DC 0000000E C=CODE     S=.text    G=(none)   M=Consts   ACBP=A9
 0001:000004EC 00000016 C=CODE     S=.text    G=(none)   M=Graphics ACBP=A9
 0001:00000504 0000013E C=CODE     S=.text    G=(none)   M=Controls ACBP=A9
 0001:00000644 0000000E C=CODE     S=.text    G=(none)   M=ActnList ACBP=A9
 0001:00000654 0000000E C=CODE     S=.text    G=(none)   M=ImgList  ACBP=A9
 0001:00000664 00000038 C=CODE     S=.text    G=(none)   M=Commctrl ACBP=A9
 0001:0000069C 000000B6 C=CODE     S=.text    G=(none)   M=Forms    ACBP=A9
 0001:00000754 0000000E C=CODE     S=.text    G=(none)   M=MultiMon ACBP=A9
 0001:00000764 00000038 C=CODE     S=.text    G=(none)   M=Imm      ACBP=A9
 0001:0000079C 0000000E C=CODE     S=.text    G=(none)   M=Menus    ACBP=A9
 0001:000007AC 0000000E C=CODE     S=.text    G=(none)   M=Contnrs  ACBP=A9
 0001:000007BC 0000000E C=CODE     S=.text    G=(none)   M=StdActns ACBP=A9
 0001:000007CC 0000001E C=CODE     S=.text    G=(none)   M=StdCtrls ACBP=A9
 0001:000007EC 0000000E C=CODE     S=.text    G=(none)   M=Clipbrd  ACBP=A9
 0001:000007FC 0000000E C=CODE     S=.text    G=(none)   M=FlatSB   ACBP=A9
 0001:0000080C 0000000E C=CODE     S=.text    G=(none)   M=Printers ACBP=A9
 0001:0000081C 00000038 C=CODE     S=.text    G=(none)   M=WinSpool ACBP=A9
 0001:00000854 0000000E C=CODE     S=.text    G=(none)   M=Math     ACBP=A9
 0001:00000864 0000000E C=CODE     S=.text    G=(none)   M=Dialogs  ACBP=A9
 0001:00000874 00000038 C=CODE     S=.text    G=(none)   M=ShlObj   ACBP=A9
 0001:000008AC 00000038 C=CODE     S=.text    G=(none)   M=UrlMon   ACBP=A9
 0001:000008E4 00000038 C=CODE     S=.text    G=(none)   M=WinInet  ACBP=A9
 0001:0000091C 00000038 C=CODE     S=.text    G=(none)   M=RegStr   ACBP=A9
 0001:00000954 00000038 C=CODE     S=.text    G=(none)   M=ShellAPI ACBP=A9
 0001:0000098C 00000038 C=CODE     S=.text    G=(none)   M=CommDlg  ACBP=A9
 0001:000009C4 00000038 C=CODE     S=.text    G=(none)   M=Dlgs     ACBP=A9
 0001:000009FC 00000016 C=CODE     S=.text    G=(none)   M=ExtCtrls ACBP=A9
 0001:00000A14 00000016 C=CODE     S=.text    G=(none)   M=KSCmdModules ACBP=A9
 0001:00000A2C 0000000E C=CODE     S=.text    G=(none)   M=KCWVProcBinds ACBP=A9
 0001:00000A3C 0000000E C=CODE     S=.text    G=(none)   M=KCDataAccess ACBP=A9
 0001:00000A4C 0000000E C=CODE     S=.text    G=(none)   M=IntfUtils ACBP=A9
 0001:00000A5C 0000000E C=CODE     S=.text    G=(none)   M=ComObj   ACBP=A9
 0001:00000A6C 0000000E C=CODE     S=.text    G=(none)   M=ComConst ACBP=A9
 0001:00000A7C 0000000E C=CODE     S=.text    G=(none)   M=DebugMemory ACBP=A9
 0001:00000A8C 00000016 C=CODE     S=.text    G=(none)   M=LogFile  ACBP=A9
 0001:00000AA4 0000000E C=CODE     S=.text    G=(none)   M=DBAIntf  ACBP=A9
 0001:00000AB4 0000000E C=CODE     S=.text    G=(none)   M=Listeners ACBP=A9
 0001:00000AC4 0000000E C=CODE     S=.text    G=(none)   M=Safecode ACBP=A9
 0001:00000AD4 0000000E C=CODE     S=.text    G=(none)   M=DBAHelper ACBP=A9
 0001:00000AE4 0000000E C=CODE     S=.text    G=(none)   M=KCDataPack ACBP=A9
 0001:00000AF4 0000000E C=CODE     S=.text    G=(none)   M=BDAImpEx ACBP=A9
 0001:00000B04 00000016 C=CODE     S=.text    G=(none)   M=Db       ACBP=A9
 0001:00000B1C 0000001E C=CODE     S=.text    G=(none)   M=Mask     ACBP=A9
 0001:00000B3C 0000000E C=CODE     S=.text    G=(none)   M=DbConsts ACBP=A9
 0001:00000B4C 0000000E C=CODE     S=.text    G=(none)   M=TxtDB    ACBP=A9
 0001:00000B5C 0000000E C=CODE     S=.text    G=(none)   M=BDAImp   ACBP=A9
 0001:00000B6C 0000000E C=CODE     S=.text    G=(none)   M=BDACore  ACBP=A9
 0001:00000B7C 0000000E C=CODE     S=.text    G=(none)   M=BDAViewers ACBP=A9
 0001:00000B8C 0000000E C=CODE     S=.text    G=(none)   M=KSEval   ACBP=A9
 0001:00000B9C 00000046 C=CODE     S=.text    G=(none)   M=DataTypes ACBP=A9
 0001:00000BE4 0000000E C=CODE     S=.text    G=(none)   M=ConvertUtils ACBP=A9
 0001:00000BF4 0000000E C=CODE     S=.text    G=(none)   M=KSStrUtils ACBP=A9
 0001:00000C04 0000000E C=CODE     S=.text    G=(none)   M=KSEvalParser ACBP=A9
 0001:00000C14 0000000E C=CODE     S=.text    G=(none)   M=DFA      ACBP=A9
 0001:00000C24 0000000E C=CODE     S=.text    G=(none)   M=TextUtils ACBP=A9
 0001:00000C34 0000000E C=CODE     S=.text    G=(none)   M=DRTPAPI  ACBP=A9
 0001:00000C44 00000038 C=CODE     S=.text    G=(none)   M=WinSock  ACBP=A9
 0001:00000C7C 00000038 C=CODE     S=.text    G=(none)   M=NB30     ACBP=A9
 0001:00000CB4 00000016 C=CODE     S=.text    G=(none)   M=WVCommands ACBP=A9
 0001:00000CCC 0000000E C=CODE     S=.text    G=(none)   M=WVCmdProc ACBP=A9
 0001:00000CDC 00000016 C=CODE     S=.text    G=(none)   M=WVCmdReq ACBP=A9
 0001:00000CF4 00000016 C=CODE     S=.text    G=(none)   M=WorkViews ACBP=A9
 0001:00000D0C 0000000E C=CODE     S=.text    G=(none)   M=LibMessages ACBP=A9
 0001:00000D1C 0000000E C=CODE     S=.text    G=(none)   M=ObjDir   ACBP=A9
 0001:00000D2C 0000000E C=CODE     S=.text    G=(none)   M=KSFrameWorkUtils ACBP=A9
 0001:00000D3C 0000000E C=CODE     S=.text    G=(none)   M=KsBranchTree ACBP=A9
 0001:00000D4C 0000000E C=CODE     S=.text    G=(none)   M=UBranchManWindow ACBP=A9
 0001:00000D5C 0000000E C=CODE     S=.text    G=(none)   M=UBranchManager ACBP=A9
 0001:00000D6C 0000000E C=CODE     S=.text    G=(none)   M=ComCtrls ACBP=A9
 0001:00000D7C 0000000E C=CODE     S=.text    G=(none)   M=ToolWin  ACBP=A9
 0001:00000D8C 00000038 C=CODE     S=.text    G=(none)   M=RichEdit ACBP=A9
 0001:00000DC4 0000000E C=CODE     S=.text    G=(none)   M=ComStrs  ACBP=A9
 0001:00000DD4 0000000E C=CODE     S=.text    G=(none)   M=KSClientConsts ACBP=A9
 0001:00000DE4 0000000E C=CODE     S=.text    G=(none)   M=KSKeyboard ACBP=A9
 0001:00000DF4 00000016 C=CODE     S=.text    G=(none)   M=DBGrids  ACBP=A9
 0001:00000E0C 0000000E C=CODE     S=.text    G=(none)   M=DBCtrls  ACBP=A9
 0001:00000E1C 0000000E C=CODE     S=.text    G=(none)   M=Buttons  ACBP=A9
 0001:00000E2C 0000000E C=CODE     S=.text    G=(none)   M=Grids    ACBP=A9
 0001:00000E3C 0000000E C=CODE     S=.text    G=(none)   M=WVCtrls  ACBP=A9
 0001:00000E4C 0000000E C=CODE     S=.text    G=(none)   M=CheckLst ACBP=A9
 0001:00000E5C 0000000E C=CODE     S=.text    G=(none)   M=EditExts ACBP=A9
 0001:00000E6C 0000000E C=CODE     S=.text    G=(none)   M=WinUtils ACBP=A9
 0001:00000E7C 0000000E C=CODE     S=.text    G=(none)   M=WinObjs  ACBP=A9
 0001:00000E8C 0000000E C=CODE     S=.text    G=(none)   M=UIncrementComboBox ACBP=A9
 0001:00000E9C 00000016 C=CODE     S=.text    G=(none)   M=KSDataDictionary ACBP=A9
 0001:00000EB4 0000001E C=CODE     S=.text    G=(none)   M=KSFrameWorks ACBP=A9
 0001:00000ED4 0000000E C=CODE     S=.text    G=(none)   M=UQueryTemp ACBP=A9
 0001:00000EE4 0000000E C=CODE     S=.text    G=(none)   M=UIStyles ACBP=A9
 0001:00000EF4 0000000E C=CODE     S=.text    G=(none)   M=CompGroup ACBP=A9
 0001:00000F04 0000000E C=CODE     S=.text    G=(none)   M=compItems ACBP=A9
 0001:00000F14 0000000E C=CODE     S=.text    G=(none)   M=TypUtils ACBP=A9
 0001:00000F24 0000000E C=CODE     S=.text    G=(none)   M=ComWriUtils ACBP=A9
 0001:00000F34 0000000E C=CODE     S=.text    G=(none)   M=DataUsageUtils ACBP=A9
 0001:00000F44 0000000E C=CODE     S=.text    G=(none)   M=RzListVw ACBP=A9
 0001:00000F54 0000000E C=CODE     S=.text    G=(none)   M=RzCommon ACBP=A9
 0001:00000F64 00000016 C=CODE     S=.text    G=(none)   M=IniFiles ACBP=A9
 0001:00000F7C 0000000E C=CODE     S=.text    G=(none)   M=Registry ACBP=A9
 0001:00000F8C 0000000E C=CODE     S=.text    G=(none)   M=RzThemeSrv ACBP=A9
 0001:00000F9C 00000038 C=CODE     S=.text    G=(none)   M=RzTmSchema ACBP=A9
 0001:00000FD4 0000000E C=CODE     S=.text    G=(none)   M=RzUxTheme ACBP=A9
 0001:00000FE4 0000000E C=CODE     S=.text    G=(none)   M=SyncObjs ACBP=A9
 0001:00000FF4 0000000E C=CODE     S=.text    G=(none)   M=RzGrafx  ACBP=A9
 0001:00001004 0000000E C=CODE     S=.text    G=(none)   M=RzShellUtils ACBP=A9
 0001:00001014 0000000E C=CODE     S=.text    G=(none)   M=RzShellIntf ACBP=A9
 0001:00001024 0000000E C=CODE     S=.text    G=(none)   M=DataSearchDlg ACBP=A9
 0001:00001034 0000000E C=CODE     S=.text    G=(none)   M=RzRadChk ACBP=A9
 0001:00001044 0000000E C=CODE     S=.text    G=(none)   M=RzButton ACBP=A9
 0001:00001054 0000000E C=CODE     S=.text    G=(none)   M=RzCommonBitmaps ACBP=A9
 0001:00001064 0000000E C=CODE     S=.text    G=(none)   M=RzPanel  ACBP=A9
 0001:00001074 0000000E C=CODE     S=.text    G=(none)   M=RzToolbarForm ACBP=A9
 0001:00001084 0000000E C=CODE     S=.text    G=(none)   M=RzChkLst ACBP=A9
 0001:00001094 0000000E C=CODE     S=.text    G=(none)   M=RzLstBox ACBP=A9
 0001:000010A4 0000000E C=CODE     S=.text    G=(none)   M=RzCmboBx ACBP=A9
 0001:000010B4 0000000E C=CODE     S=.text    G=(none)   M=RzIntLst ACBP=A9
 0001:000010C4 0000000E C=CODE     S=.text    G=(none)   M=ExtDlgs  ACBP=A9
 0001:000010D4 0000001E C=CODE     S=.text    G=(none)   M=RzEdit   ACBP=A9
 0001:000010F4 0000000E C=CODE     S=.text    G=(none)   M=RzPopups ACBP=A9
 0001:00001104 0000000E C=CODE     S=.text    G=(none)   M=RzBorder ACBP=A9
 0001:00001114 0000000E C=CODE     S=.text    G=(none)   M=RzRadGrp ACBP=A9
 0001:00001124 0000000E C=CODE     S=.text    G=(none)   M=RzSpnEdt ACBP=A9
 0001:00001134 0000000E C=CODE     S=.text    G=(none)   M=RzCommonCursors ACBP=A9
 0001:00001144 0000000E C=CODE     S=.text    G=(none)   M=RzLabel  ACBP=A9
 0001:00001154 0000000E C=CODE     S=.text    G=(none)   M=ImageCtrls ACBP=A9
 0001:00001164 0000000E C=CODE     S=.text    G=(none)   M=ImagesMan ACBP=A9
 0001:00001174 0000000E C=CODE     S=.text    G=(none)   M=CompUtils ACBP=A9
 0001:00001184 0000001E C=CODE     S=.text    G=(none)   M=UICtrls  ACBP=A9
 0001:000011A4 0000000E C=CODE     S=.text    G=(none)   M=DrawUtils ACBP=A9
 0001:000011B4 0000000E C=CODE     S=.text    G=(none)   M=PrintUtils ACBP=A9
 0001:000011C4 0000000E C=CODE     S=.text    G=(none)   M=KSCustomers ACBP=A9
 0001:000011D4 0000000E C=CODE     S=.text    G=(none)   M=KSComCmdDefs ACBP=A9
 0001:000011E4 0000000E C=CODE     S=.text    G=(none)   M=KSBranchInfo ACBP=A9
 0001:000011F4 0000000E C=CODE     S=.text    G=(none)   M=KSEdits  ACBP=A9
 0001:00001204 0000000E C=CODE     S=.text    G=(none)   M=WVCmdTypeInfo ACBP=A9
 0001:00001214 000000BE C=CODE     S=.text    G=(none)   M=KSFrames ACBP=A9
 0001:000012D4 0000000E C=CODE     S=.text    G=(none)   M=RzDBNav  ACBP=A9
 0001:000012E4 0000000E C=CODE     S=.text    G=(none)   M=RzDBGrid ACBP=A9
 0001:000012F4 0000000E C=CODE     S=.text    G=(none)   M=ViewDataDetail ACBP=A9
 0001:00001304 0000000E C=CODE     S=.text    G=(none)   M=DBActns  ACBP=A9
 0001:00001314 0000000E C=CODE     S=.text    G=(none)   M=UAuth    ACBP=A9
 0001:00001324 0000000E C=CODE     S=.text    G=(none)   M=KSMenuAdmin ACBP=A9
 0001:00001334 0000000E C=CODE     S=.text    G=(none)   M=KsChineseSpell ACBP=A9
 0001:00001344 0000000E C=CODE     S=.text    G=(none)   M=ExtUtils ACBP=A9
 0001:00001354 0000000E C=CODE     S=.text    G=(none)   M=FileCtrl ACBP=A9
 0001:00001364 00000038 C=CODE     S=.text    G=(none)   M=TLHelp32 ACBP=A9
 0001:0000139C 0000000E C=CODE     S=.text    G=(none)   M=RPDesignInfo ACBP=A9
 0001:000013AC 0000000E C=CODE     S=.text    G=(none)   M=RPBands  ACBP=A9
 0001:000013BC 0000000E C=CODE     S=.text    G=(none)   M=RPDB     ACBP=A9
 0001:000013CC 0000000E C=CODE     S=.text    G=(none)   M=RPDefines ACBP=A9
 0001:000013DC 0000000E C=CODE     S=.text    G=(none)   M=RPCtrls  ACBP=A9
 0001:000013EC 0000000E C=CODE     S=.text    G=(none)   M=RPProcessors ACBP=A9
 0001:000013FC 0000000E C=CODE     S=.text    G=(none)   M=RPPrintObjects ACBP=A9
 0001:0000140C 0000000E C=CODE     S=.text    G=(none)   M=RPProgress ACBP=A9
 0001:0000141C 0000000E C=CODE     S=.text    G=(none)   M=ProgressShowing ACBP=A9
 0001:0000142C 0000000E C=CODE     S=.text    G=(none)   M=RPEasyReports ACBP=A9
 0001:0000143C 0000000E C=CODE     S=.text    G=(none)   M=PrintDevices ACBP=A9
 0001:0000144C 0000000E C=CODE     S=.text    G=(none)   M=RPPreview ACBP=A9
 0001:0000145C 0000000E C=CODE     S=.text    G=(none)   M=Spin     ACBP=A9
 0001:0000146C 0000000E C=CODE     S=.text    G=(none)   M=UPrintMode ACBP=A9
 0001:0000147C 0000000E C=CODE     S=.text    G=(none)   M=RPDBVCL  ACBP=A9
 0001:0000148C 0000000E C=CODE     S=.text    G=(none)   M=TextOutScripts ACBP=A9
 0001:0000149C 0000000E C=CODE     S=.text    G=(none)   M=TextTags ACBP=A9
 0001:000014AC 0000000E C=CODE     S=.text    G=(none)   M=FuncScripts ACBP=A9
 0001:000014BC 0000000E C=CODE     S=.text    G=(none)   M=UPrintTemplate ACBP=A9
 0001:000014CC 0000000E C=CODE     S=.text    G=(none)   M=AdjustGridDlg ACBP=A9
 0001:000014DC 0000000E C=CODE     S=.text    G=(none)   M=WVDBBinders ACBP=A9
 0001:000014EC 000002FF C=CODE     S=.text    G=(none)   M=UCMqhCardDef ACBP=A9
 0001:000017EC 0000030F C=CODE     S=.text    G=(none)   M=UCMqhCardImp ACBP=A9
 0001:00001AFC 00000036 C=CODE     S=.text    G=(none)   M=UInputTemp ACBP=A9
 0001:00001B34 0000000E C=CODE     S=.text    G=(none)   M=RzStatus ACBP=A9
 0001:00001B44 0000000E C=CODE     S=.text    G=(none)   M=RzPrgres ACBP=A9
 0001:00001B54 0000000E C=CODE     S=.text    G=(none)   M=RzSysRes ACBP=A9
 0001:00001B64 00000196 C=CODE     S=.text    G=(none)   M=CardDll  ACBP=A9
 0001:00001CFC 0000000E C=CODE     S=.text    G=(none)   M=WaterDll ACBP=A9
 0001:00001D0C 0000002E C=CODE     S=.text    G=(none)   M=SmartCardCommon ACBP=A9
 0001:00001D3C 00000036 C=CODE     S=.text    G=(none)   M=RM_Class ACBP=A9
 0001:00001D74 0000000E C=CODE     S=.text    G=(none)   M=RM_Const ACBP=A9
 0001:00001D84 0000000E C=CODE     S=.text    G=(none)   M=RM_Const1 ACBP=A9
 0001:00001D94 0000000E C=CODE     S=.text    G=(none)   M=RM_utils ACBP=A9
 0001:00001DA4 0000000E C=CODE     S=.text    G=(none)   M=RM_Dataset ACBP=A9
 0001:00001DB4 0000000E C=CODE     S=.text    G=(none)   M=RM_progr ACBP=A9
 0001:00001DC4 0000000E C=CODE     S=.text    G=(none)   M=RM_Common ACBP=A9
 0001:00001DD4 00000016 C=CODE     S=.text    G=(none)   M=RM_Parser ACBP=A9
 0001:00001DEC 0000000E C=CODE     S=.text    G=(none)   M=RM_Printer ACBP=A9
 0001:00001DFC 0000000E C=CODE     S=.text    G=(none)   M=JvInterpreter ACBP=A9
 0001:00001E0C 0000000E C=CODE     S=.text    G=(none)   M=JvInterpreterParser ACBP=A9
 0001:00001E1C 0000000E C=CODE     S=.text    G=(none)   M=JvComponent ACBP=A9
 0001:00001E2C 0000000E C=CODE     S=.text    G=(none)   M=JVCLVer  ACBP=A9
 0001:00001E3C 0000000E C=CODE     S=.text    G=(none)   M=OleConst ACBP=A9
 0001:00001E4C 0000000E C=CODE     S=.text    G=(none)   M=JvInterpreterConst ACBP=A9
 0001:00001E5C 0000000E C=CODE     S=.text    G=(none)   M=JvUtils  ACBP=A9
 0001:00001E6C 0000000E C=CODE     S=.text    G=(none)   M=JvCtlConst ACBP=A9
 0001:00001E7C 0000000E C=CODE     S=.text    G=(none)   M=JvStrUtil ACBP=A9
 0001:00001E8C 0000000E C=CODE     S=.text    G=(none)   M=RM_Preview ACBP=A9
 0001:00001E9C 0000000E C=CODE     S=.text    G=(none)   M=RM_Ctrls ACBP=A9
 0001:00001EAC 0000000E C=CODE     S=.text    G=(none)   M=RM_DsgCtrls ACBP=A9
 0001:00001EBC 0000000E C=CODE     S=.text    G=(none)   M=TB97Ctls ACBP=A9
 0001:00001ECC 0000000E C=CODE     S=.text    G=(none)   M=TB97Vers ACBP=A9
 0001:00001EDC 0000000E C=CODE     S=.text    G=(none)   M=TB97Cmn  ACBP=A9
 0001:00001EEC 0000000E C=CODE     S=.text    G=(none)   M=TB97Tlbr ACBP=A9
 0001:00001EFC 0000000E C=CODE     S=.text    G=(none)   M=TB97     ACBP=A9
 0001:00001F0C 0000000E C=CODE     S=.text    G=(none)   M=TB97Cnst ACBP=A9
 0001:00001F1C 0000000E C=CODE     S=.text    G=(none)   M=TB97Tlwn ACBP=A9
 0001:00001F2C 0000000E C=CODE     S=.text    G=(none)   M=RM_PrintDlg ACBP=A9
 0001:00001F3C 0000000E C=CODE     S=.text    G=(none)   M=RM_PageSetup ACBP=A9
 0001:00001F4C 0000000E C=CODE     S=.text    G=(none)   M=RM_DlgFind ACBP=A9
 0001:00001F5C 0000000E C=CODE     S=.text    G=(none)   M=JvInterpreter_Windows ACBP=A9
 0001:00001F6C 0000000E C=CODE     S=.text    G=(none)   M=JvInterpreter_System ACBP=A9
 0001:00001F7C 0000000E C=CODE     S=.text    G=(none)   M=JvInterpreter_SysUtils ACBP=A9
 0001:00001F8C 0000000E C=CODE     S=.text    G=(none)   M=JvStrUtils ACBP=A9
 0001:00001F9C 0000000E C=CODE     S=.text    G=(none)   M=JvInterpreter_Classes ACBP=A9
 0001:00001FAC 0000000E C=CODE     S=.text    G=(none)   M=JvInterpreter_Graphics ACBP=A9
 0001:00001FBC 0000000E C=CODE     S=.text    G=(none)   M=JvInterpreter_StdCtrls ACBP=A9
 0001:00001FCC 0000000E C=CODE     S=.text    G=(none)   M=JvInterpreter_Controls ACBP=A9
 0001:00001FDC 0000000E C=CODE     S=.text    G=(none)   M=JvInterpreter_Dialogs ACBP=A9
 0001:00001FEC 0000000E C=CODE     S=.text    G=(none)   M=JvInterpreter_Forms ACBP=A9
 0001:00001FFC 0000000E C=CODE     S=.text    G=(none)   M=jpeg     ACBP=A9
 0001:0000200C 0000000E C=CODE     S=.text    G=(none)   M=jconsts  ACBP=A9
 0001:0000201C 0000000E C=CODE     S=.text    G=(none)   M=FilterCombos ACBP=A9
 0001:0000202C 0000000E C=CODE     S=.text    G=(none)   M=RzDTP    ACBP=A9
 0001:0000203C 00001C30 C=CODE     S=.text    G=(none)   M=USeriPara ACBP=A9
 0001:00003C6C 00000026 C=CODE     S=.text    G=(none)   M=UqhSimpleQueryTemp ACBP=A9
 0001:00003C94 0000003E C=CODE     S=.text    G=(none)   M=USimpleQueryTemp ACBP=A9
 0001:00003CD4 000008F0 C=CODE     S=.text    G=(none)   M=UAMakeAnonCardNo ACBP=A9
 0001:000045C4 00000DAC C=CODE     S=.text    G=(none)   M=UATradeCancel ACBP=A9
 0001:00005370 000014BC C=CODE     S=.text    G=(none)   M=UAUNLossOper ACBP=A9
 0001:0000682C 00001844 C=CODE     S=.text    G=(none)   M=UADestoryApp ACBP=A9
 0001:00008070 00000588 C=CODE     S=.text    G=(none)   M=UAAccountQ ACBP=A9
 0001:000085F8 000007DC C=CODE     S=.text    G=(none)   M=UAConsumeSerial ACBP=A9
 0001:00008DD4 00000F20 C=CODE     S=.text    G=(none)   M=UALossOper ACBP=A9
 0001:00009CF4 00001190 C=CODE     S=.text    G=(none)   M=UAChangeCard ACBP=A9
 0001:0000AE84 0000106C C=CODE     S=.text    G=(none)   M=UADestoryOper ACBP=A9
 0001:0000BEF0 000010D0 C=CODE     S=.text    G=(none)   M=UAReNewApp ACBP=A9
 0001:0000CFC0 00001620 C=CODE     S=.text    G=(none)   M=UAReNewOper ACBP=A9
 0001:0000E5E0 00001700 C=CODE     S=.text    G=(none)   M=UAChangeCardOper ACBP=A9
 0001:0000FCE0 0000194C C=CODE     S=.text    G=(none)   M=UANonCardChange ACBP=A9
 0001:0001162C 00001FD0 C=CODE     S=.text    G=(none)   M=UAMachineConsume ACBP=A9
 0001:000135FC 000019F4 C=CODE     S=.text    G=(none)   M=UASetCardMony ACBP=A9
 0001:00014FF0 00000914 C=CODE     S=.text    G=(none)   M=UAappDeal ACBP=A9
 0001:00015904 000008CC C=CODE     S=.text    G=(none)   M=UACardSericalQ ACBP=A9
 0001:000161D0 00002180 C=CODE     S=.text    G=(none)   M=UACardMonyIn ACBP=A9
 0001:00018350 00001BBC C=CODE     S=.text    G=(none)   M=UAReturnMoney ACBP=A9
 0001:00019F0C 0000080D C=CODE     S=.text    G=(none)   M=CPUCardUI ACBP=A9
 0002:00000000 00000028 C=DATA     S=.data    G=DGROUP   M=SysInit  ACBP=A9
 0002:00001000 00000018 C=BSS      S=.bss     G=DGROUP   M=SysInit  ACBP=A9
 0002:00001018 00000004 C=BSS      S=.bss     G=DGROUP   M=Windows  ACBP=A9
 0002:0000101C 00000004 C=BSS      S=.bss     G=DGROUP   M=Messages ACBP=A9
 0002:00001020 00000004 C=BSS      S=.bss     G=DGROUP   M=Commctrl ACBP=A9
 0002:00001024 00000004 C=BSS      S=.bss     G=DGROUP   M=Imm      ACBP=A9
 0002:00001028 00000004 C=BSS      S=.bss     G=DGROUP   M=WinSpool ACBP=A9
 0002:0000102C 00000004 C=BSS      S=.bss     G=DGROUP   M=ShlObj   ACBP=A9
 0002:00001030 00000004 C=BSS      S=.bss     G=DGROUP   M=UrlMon   ACBP=A9
 0002:00001034 00000004 C=BSS      S=.bss     G=DGROUP   M=WinInet  ACBP=A9
 0002:00001038 00000004 C=BSS      S=.bss     G=DGROUP   M=RegStr   ACBP=A9
 0002:0000103C 00000004 C=BSS      S=.bss     G=DGROUP   M=ShellAPI ACBP=A9
 0002:00001040 00000004 C=BSS      S=.bss     G=DGROUP   M=CommDlg  ACBP=A9
 0002:00001044 00000004 C=BSS      S=.bss     G=DGROUP   M=Dlgs     ACBP=A9
 0002:00001048 00000004 C=BSS      S=.bss     G=DGROUP   M=WinSock  ACBP=A9
 0002:0000104C 00000004 C=BSS      S=.bss     G=DGROUP   M=NB30     ACBP=A9
 0002:00001050 00000004 C=BSS      S=.bss     G=DGROUP   M=RichEdit ACBP=A9
 0002:00001054 00000004 C=BSS      S=.bss     G=DGROUP   M=RzTmSchema ACBP=A9
 0002:00001058 00000004 C=BSS      S=.bss     G=DGROUP   M=TLHelp32 ACBP=A9
 0002:0000105C 00000008 C=BSS      S=.bss     G=DGROUP   M=UCMqhCardDef ACBP=A9
 0002:00001064 00000008 C=BSS      S=.bss     G=DGROUP   M=UCMqhCardImp ACBP=A9
 0002:0000106C 00000008 C=BSS      S=.bss     G=DGROUP   M=USeriPara ACBP=A9
 0002:00001074 0000000C C=BSS      S=.bss     G=DGROUP   M=UAMakeAnonCardNo ACBP=A9
 0002:00001080 00000008 C=BSS      S=.bss     G=DGROUP   M=UATradeCancel ACBP=A9
 0002:00001088 00000008 C=BSS      S=.bss     G=DGROUP   M=UAUNLossOper ACBP=A9
 0002:00001090 00000008 C=BSS      S=.bss     G=DGROUP   M=UADestoryApp ACBP=A9
 0002:00001098 00000008 C=BSS      S=.bss     G=DGROUP   M=UAAccountQ ACBP=A9
 0002:000010A0 00000008 C=BSS      S=.bss     G=DGROUP   M=UAConsumeSerial ACBP=A9
 0002:000010A8 00000008 C=BSS      S=.bss     G=DGROUP   M=UALossOper ACBP=A9
 0002:000010B0 00000008 C=BSS      S=.bss     G=DGROUP   M=UAChangeCard ACBP=A9
 0002:000010B8 00000008 C=BSS      S=.bss     G=DGROUP   M=UADestoryOper ACBP=A9
 0002:000010C0 00000008 C=BSS      S=.bss     G=DGROUP   M=UAReNewApp ACBP=A9
 0002:000010C8 00000008 C=BSS      S=.bss     G=DGROUP   M=UAReNewOper ACBP=A9
 0002:000010D0 00000008 C=BSS      S=.bss     G=DGROUP   M=UAChangeCardOper ACBP=A9
 0002:000010D8 00000008 C=BSS      S=.bss     G=DGROUP   M=UANonCardChange ACBP=A9
 0002:000010E0 0000000C C=BSS      S=.bss     G=DGROUP   M=UAMachineConsume ACBP=A9
 0002:000010EC 0000000C C=BSS      S=.bss     G=DGROUP   M=UASetCardMony ACBP=A9
 0002:000010F8 00000008 C=BSS      S=.bss     G=DGROUP   M=UAappDeal ACBP=A9
 0002:00001100 00000008 C=BSS      S=.bss     G=DGROUP   M=UACardSericalQ ACBP=A9
 0002:00001108 0000000C C=BSS      S=.bss     G=DGROUP   M=UACardMonyIn ACBP=A9
 0002:00001114 00000008 C=BSS      S=.bss     G=DGROUP   M=UAReturnMoney ACBP=A9


  Address         Publics by Name

 0002:0000104C       .1
 0002:00001010       .1
 0002:00001084       .2
 0002:00001118       .2
 0002:000010C4       .2
 0002:0000107C       .2
 0002:0000108C       .2
 0002:000010F4       .2
 0002:000010CC       .2
 0002:000010D4       .2
 0002:00001094       .2
 0002:000010E8       .2
 0002:000010BC       .2
 0002:0000109C       .2
 0002:000010DC       .2
 0002:00001110       .2
 0002:000010A4       .2
 0002:00001060       .2
 0002:000010AC       .2
 0002:00001104       .2
 0002:00001070       .2
 0002:00001068       .2
 0002:000010B4       .2
 0002:000010FC       .2
 0001:0001A6EC       @GetPackageInfoTable
 0001:000002B0       @InitPkg
 0001:0001A6F4       @PackageLoad
 0001:0001A704       @PackageUnload
 0001:00000694       Commctrl
 0001:000009BC       CommDlg
 0001:0001A714       CPUCardUI
 0001:000009F4       Dlgs
 0002:0000105C       dmCardDef
 0002:00001064       dmCardImp
 0001:00000220       ExitProcessTLS
 0001:000001F8       ExitThreadTLS
 0002:0000106C       faMachinePara
 0002:00001098       faqhAccountQ
 0002:000010F8       faqhappDeal
 0002:00001108       faqhCardMonyIn
 0002:00001100       faqhCardSericalQ
 0002:000010B0       faqhChangeCard
 0002:000010D0       faqhChangeCardOper
 0002:000010A0       faqhConsumeSerial
 0002:00001090       faqhDestoryApp
 0002:000010B8       faqhDestoryOper
 0002:000010A8       faqhLossOper
 0002:000010E0       faqhMachineConsume
 0002:00001074       faqhMakeAnonCardNo
 0002:000010D8       faqhNonCardChange
 0002:000010C0       faqhReNewApp
 0002:000010C8       faqhReNewOper
 0002:00001114       faqhReturnMoney
 0002:000010EC       faqhSetCardMony
 0002:00001080       faqhTradeCancel
 0002:00001088       faqhUnLossOper
 0001:00004528       Finalization
 0001:00005308       Finalization
 0001:000067C4       Finalization
 0001:00003C04       Finalization
 0001:00008008       Finalization
 0001:0000858C       Finalization
 0001:00009C8C       Finalization
 0001:00001AA8       Finalization
 0001:00001798       Finalization
 0001:0000AE1C       Finalization
 0001:00001364       Finalization
 0001:00000F9C       Finalization
 0001:00000D8C       Finalization
 0001:0000BE88       Finalization
 0001:00000C7C       Finalization
 0001:00000C44       Finalization
 0001:000009C4       Finalization
 0001:0000098C       Finalization
 0001:00000954       Finalization
 0001:0000CF58       Finalization
 0001:0000091C       Finalization
 0001:000008E4       Finalization
 0001:000008AC       Finalization
 0001:0000E578       Finalization
 0001:00000874       Finalization
 0001:0000081C       Finalization
 0001:00000764       Finalization
 0001:00000664       Finalization
 0001:0000FC78       Finalization
 0001:0000039C       Finalization
 0001:00000364       Finalization
 0001:000115C0       Finalization
 0001:00000314       Finalization
 0001:00013564       Finalization
 0001:00014F58       Finalization
 0001:0001589C       Finalization
 0001:00016164       Finalization
 0001:000182B8       Finalization
 0001:00019EA4       Finalization
 0001:00008D68       Finalization
 0001:00000140       FreeLibrary
 0001:00000148       GetModuleFileName
 0001:0000034C       GetTickCount
 0002:0000100C       HInstance
 0001:00000794       Imm
 0001:00000244       InitializeModule
 0001:000001D0       InitProcessTLS
 0001:00000180       InitThreadTLS
 0001:00000150       LocalAlloc
 0001:00000158       LocalFree
 0001:000003CC       Messages
 0002:00000000       Module
 0002:00001000       ModuleIsLib
 0002:00001001       ModuleIsPackage
 0001:00000CAC       NB30
 0002:00001078       OldMoney
 0002:0000110C       OldMoney
 0002:000010F0       OldMoney
 0002:000010E4       OldMoney
 0001:0000094C       RegStr
 0001:00000DBC       RichEdit
 0001:00000FCC       RzTmSchema
 0001:00000984       ShellAPI
 0001:000008A4       ShlObj
 0001:00000354       Sleep
 0001:00000344       SysInit
 0001:00003714       TfaMachinePara.btnCancelClick
 0001:00002A38       TfaMachinePara.btnCloseClick
 0001:00003770       TfaMachinePara.btnKeyClick
 0001:0000253C       TfaMachinePara.btnOKClick
 0001:000029DC       TfaMachinePara.btnOpenClick
 0001:00003138       TfaMachinePara.btnReadCardClick
 0001:00003774       TfaMachinePara.btnSetPasmClick
 0001:0000307C       TfaMachinePara.CloseFormINI
 0001:00002544       TfaMachinePara.Init
 0001:0000371C       TfaMachinePara.initCardInfoPosi
 0001:00002CF0       TfaMachinePara.OPenFormINI
 0001:00002A94       TfaMachinePara.SaveToINI
 0001:000083EC       TfaqhAccountQ.btnQueryClick
 0001:00008474       TfaqhAccountQ.btnReadCardClick
 0001:000083E4       TfaqhAccountQ.Init
 0001:00015680       TfaqhappDeal.btnPrintClick
 0001:00015334       TfaqhappDeal.btnQueryClick
 0001:00015568       TfaqhappDeal.btnReadQClick
 0001:0001532C       TfaqhappDeal.Init
 0001:00016798       TfaqhCardMonyIn.btnMoneyInClick
 0001:00018094       TfaqhCardMonyIn.btnReadCardInfoClick
 0001:0001823C       TfaqhCardMonyIn.btnRePrintClick
 0001:00017D0C       TfaqhCardMonyIn.cbbTypeChange
 0001:00018120       TfaqhCardMonyIn.cbbTypeKeyDown
 0001:00018140       TfaqhCardMonyIn.edtmoneyKeyDown
 0001:000166B0       TfaqhCardMonyIn.Init
 0001:00017D98       TfaqhCardMonyIn.readCardInfo
 0001:00017D3C       TfaqhCardMonyIn.WVEdit6KeyPress
 0001:00015CFC       TfaqhCardSericalQ.btnQueryClick
 0001:0001604C       TfaqhCardSericalQ.btnReadCardClick
 0001:00015CC8       TfaqhCardSericalQ.Init
 0001:0000A070       TfaqhChangeCard.btnLossClick
 0001:0000ADA4       TfaqhChangeCard.btnPrintClick
 0001:0000A054       TfaqhChangeCard.btnQueryClick
 0001:0000AC8C       TfaqhChangeCard.btnReadCardClick
 0001:0000A04C       TfaqhChangeCard.Init
 0001:0000EA10       TfaqhChangeCardOper.btnLossClick
 0001:0000FC00       TfaqhChangeCardOper.btnPrintClick
 0001:0000E9F4       TfaqhChangeCardOper.btnQueryClick
 0001:0000FAE8       TfaqhChangeCardOper.btnReadCardClick
 0001:0000E948       TfaqhChangeCardOper.Init
 0001:00008978       TfaqhConsumeSerial.btnQueryClick
 0001:00008C50       TfaqhConsumeSerial.btnReadCardClick
 0001:00008944       TfaqhConsumeSerial.Init
 0001:00006C70       TfaqhDestoryApp.btnLossClick
 0001:00007F90       TfaqhDestoryApp.btnPrintClick
 0001:00006C54       TfaqhDestoryApp.btnQueryClick
 0001:00007E78       TfaqhDestoryApp.btnReadCardClick
 0001:00006BA8       TfaqhDestoryApp.Init
 0001:0000B200       TfaqhDestoryOper.btnLossClick
 0001:0000BE0C       TfaqhDestoryOper.btnPrintClick
 0001:0000B1E4       TfaqhDestoryOper.btnQueryClick
 0001:0000BCF4       TfaqhDestoryOper.btnReadCardClick
 0001:0000B1DC       TfaqhDestoryOper.Init
 0001:00009128       TfaqhLossOper.btnLossClick
 0001:00009C14       TfaqhLossOper.btnPrintClick
 0001:0000910C       TfaqhLossOper.btnQueryClick
 0001:00009AFC       TfaqhLossOper.btnReadCardClick
 0001:00009104       TfaqhLossOper.Init
 0001:00011B80       TfaqhMachineConsume.btnMoneyInClick
 0001:00013220       TfaqhMachineConsume.btnReadCardInfoClick
 0001:000134E8       TfaqhMachineConsume.btnRePrintClick
 0001:0001329C       TfaqhMachineConsume.cbbTypeKeyDown
 0001:000132BC       TfaqhMachineConsume.edtmoneyKeyDown
 0001:00011AA8       TfaqhMachineConsume.Init
 0001:00012F24       TfaqhMachineConsume.readCardInfo
 0001:000133BC       TfaqhMachineConsume.writeSuccess
 0001:00012EC8       TfaqhMachineConsume.WVEdit6KeyPress
 0001:0000407C       TfaqhMakeAnonCardNo.btnReadCardInfoClick
 0001:000044EC       TfaqhMakeAnonCardNo.cbbCardTypeChange
 0001:000042C0       TfaqhMakeAnonCardNo.getFeeInfo
 0001:00004060       TfaqhMakeAnonCardNo.Init
 0001:00010480       TfaqhNonCardChange.btnPrintClick
 0001:00010134       TfaqhNonCardChange.btnQueryClick
 0001:00010368       TfaqhNonCardChange.btnReadQClick
 0001:00011544       TfaqhNonCardChange.btnRePrintClick
 0001:00010088       TfaqhNonCardChange.Init
 0001:0000C268       TfaqhReNewApp.btnLossClick
 0001:0000CEE0       TfaqhReNewApp.btnPrintClick
 0001:0000C24C       TfaqhReNewApp.btnQueryClick
 0001:0000CDC8       TfaqhReNewApp.btnReadCardClick
 0001:0000C244       TfaqhReNewApp.Init
 0001:0000D3D8       TfaqhReNewOper.btnLossClick
 0001:0000E500       TfaqhReNewOper.btnPrintClick
 0001:0000D3BC       TfaqhReNewOper.btnQueryClick
 0001:0000E3E8       TfaqhReNewOper.btnReadCardClick
 0001:0000D310       TfaqhReNewOper.Init
 0001:00018ABC       TfaqhReturnMoney.btnPrintClick
 0001:000187E4       TfaqhReturnMoney.btnQueryClick
 0001:00019D10       TfaqhReturnMoney.btnReadCardClick
 0001:00019E28       TfaqhReturnMoney.btnRePrintClick
 0001:0001870C       TfaqhReturnMoney.Init
 0001:00013C00       TfaqhSetCardMony.btnMoneyInClick
 0001:00014B14       TfaqhSetCardMony.btnReadCardInfoClick
 0001:00014D94       TfaqhSetCardMony.calcMoney
 0001:00014D84       TfaqhSetCardMony.edtMoneyChange
 0001:00014B84       TfaqhSetCardMony.edtmoneyKeyDown
 0001:00013B34       TfaqhSetCardMony.Init
 0001:0001465C       TfaqhSetCardMony.readCardInfo
 0001:00014D8C       TfaqhSetCardMony.rgDirectionClick
 0001:00014C84       TfaqhSetCardMony.writeSuccess
 0001:00004E7C       TfaqhTradeCancel.btnPrintClick
 0001:00004A14       TfaqhTradeCancel.btnQueryClick
 0001:00004D64       TfaqhTradeCancel.btnReadCardClick
 0001:000049E0       TfaqhTradeCancel.Init
 0001:000056E0       TfaqhUnLossOper.btnLossClick
 0001:0000674C       TfaqhUnLossOper.btnPrintClick
 0001:000056C4       TfaqhUnLossOper.btnQueryClick
 0001:00006634       TfaqhUnLossOper.btnReadCardClick
 0001:000056BC       TfaqhUnLossOper.Init
 0001:00001394       TLHelp32
 0001:00000160       TlsAlloc
 0002:00001014       TlsBuffer
 0001:00000168       TlsFree
 0001:00000170       TlsGetValue
 0002:00001004       TlsIndex
 0002:FFBCC000       TlsLast
 0002:00000018       TlsProc
 0001:00000178       TlsSetValue
 0001:000085BC       UAAccountQ
 0001:000158CC       UAappDeal
 0001:000182F4       UACardMonyIn
 0001:00016194       UACardSericalQ
 0001:0000AE4C       UAChangeCard
 0001:0000FCA8       UAChangeCardOper
 0001:00008D98       UAConsumeSerial
 0001:00008038       UADestoryApp
 0001:0000BEB8       UADestoryOper
 0001:00009CBC       UALossOper
 0001:000135A0       UAMachineConsume
 0001:00004564       UAMakeAnonCardNo
 0001:000115F0       UANonCardChange
 0001:0000CF88       UAReNewApp
 0001:0000E5A8       UAReNewOper
 0001:00019ED4       UAReturnMoney
 0001:00014F94       UASetCardMony
 0001:00005338       UATradeCancel
 0001:000067F4       UAUNLossOper
 0001:000017C8       UCMqhCardDef
 0001:00001AD8       UCMqhCardImp
 0001:00000290       UninitializeModule
 0001:000008DC       UrlMon
 0001:00003C34       USeriPara
 0001:00000394       Windows
 0001:00000914       WinInet
 0001:00000C74       WinSock
 0001:0000084C       WinSpool
 0001:0000035C       ZeroMemory


  Address         Publics by Value

 0002:FFBCC000       TlsLast
 0001:00000140       FreeLibrary
 0001:00000148       GetModuleFileName
 0001:00000150       LocalAlloc
 0001:00000158       LocalFree
 0001:00000160       TlsAlloc
 0001:00000168       TlsFree
 0001:00000170       TlsGetValue
 0001:00000178       TlsSetValue
 0001:00000180       InitThreadTLS
 0001:000001D0       InitProcessTLS
 0001:000001F8       ExitThreadTLS
 0001:00000220       ExitProcessTLS
 0001:00000244       InitializeModule
 0001:00000290       UninitializeModule
 0001:000002B0       @InitPkg
 0001:00000314       Finalization
 0001:00000344       SysInit
 0001:0000034C       GetTickCount
 0001:00000354       Sleep
 0001:0000035C       ZeroMemory
 0001:00000364       Finalization
 0001:00000394       Windows
 0001:0000039C       Finalization
 0001:000003CC       Messages
 0001:00000664       Finalization
 0001:00000694       Commctrl
 0001:00000764       Finalization
 0001:00000794       Imm
 0001:0000081C       Finalization
 0001:0000084C       WinSpool
 0001:00000874       Finalization
 0001:000008A4       ShlObj
 0001:000008AC       Finalization
 0001:000008DC       UrlMon
 0001:000008E4       Finalization
 0001:00000914       WinInet
 0001:0000091C       Finalization
 0001:0000094C       RegStr
 0001:00000954       Finalization
 0001:00000984       ShellAPI
 0001:0000098C       Finalization
 0001:000009BC       CommDlg
 0001:000009C4       Finalization
 0001:000009F4       Dlgs
 0001:00000C44       Finalization
 0001:00000C74       WinSock
 0001:00000C7C       Finalization
 0001:00000CAC       NB30
 0001:00000D8C       Finalization
 0001:00000DBC       RichEdit
 0001:00000F9C       Finalization
 0001:00000FCC       RzTmSchema
 0001:00001364       Finalization
 0001:00001394       TLHelp32
 0001:00001798       Finalization
 0001:000017C8       UCMqhCardDef
 0001:00001AA8       Finalization
 0001:00001AD8       UCMqhCardImp
 0001:0000253C       TfaMachinePara.btnOKClick
 0001:00002544       TfaMachinePara.Init
 0001:000029DC       TfaMachinePara.btnOpenClick
 0001:00002A38       TfaMachinePara.btnCloseClick
 0001:00002A94       TfaMachinePara.SaveToINI
 0001:00002CF0       TfaMachinePara.OPenFormINI
 0001:0000307C       TfaMachinePara.CloseFormINI
 0001:00003138       TfaMachinePara.btnReadCardClick
 0001:00003714       TfaMachinePara.btnCancelClick
 0001:0000371C       TfaMachinePara.initCardInfoPosi
 0001:00003770       TfaMachinePara.btnKeyClick
 0001:00003774       TfaMachinePara.btnSetPasmClick
 0001:00003C04       Finalization
 0001:00003C34       USeriPara
 0001:00004060       TfaqhMakeAnonCardNo.Init
 0001:0000407C       TfaqhMakeAnonCardNo.btnReadCardInfoClick
 0001:000042C0       TfaqhMakeAnonCardNo.getFeeInfo
 0001:000044EC       TfaqhMakeAnonCardNo.cbbCardTypeChange
 0001:00004528       Finalization
 0001:00004564       UAMakeAnonCardNo
 0001:000049E0       TfaqhTradeCancel.Init
 0001:00004A14       TfaqhTradeCancel.btnQueryClick
 0001:00004D64       TfaqhTradeCancel.btnReadCardClick
 0001:00004E7C       TfaqhTradeCancel.btnPrintClick
 0001:00005308       Finalization
 0001:00005338       UATradeCancel
 0001:000056BC       TfaqhUnLossOper.Init
 0001:000056C4       TfaqhUnLossOper.btnQueryClick
 0001:000056E0       TfaqhUnLossOper.btnLossClick
 0001:00006634       TfaqhUnLossOper.btnReadCardClick
 0001:0000674C       TfaqhUnLossOper.btnPrintClick
 0001:000067C4       Finalization
 0001:000067F4       UAUNLossOper
 0001:00006BA8       TfaqhDestoryApp.Init
 0001:00006C54       TfaqhDestoryApp.btnQueryClick
 0001:00006C70       TfaqhDestoryApp.btnLossClick
 0001:00007E78       TfaqhDestoryApp.btnReadCardClick
 0001:00007F90       TfaqhDestoryApp.btnPrintClick
 0001:00008008       Finalization
 0001:00008038       UADestoryApp
 0001:000083E4       TfaqhAccountQ.Init
 0001:000083EC       TfaqhAccountQ.btnQueryClick
 0001:00008474       TfaqhAccountQ.btnReadCardClick
 0001:0000858C       Finalization
 0001:000085BC       UAAccountQ
 0001:00008944       TfaqhConsumeSerial.Init
 0001:00008978       TfaqhConsumeSerial.btnQueryClick
 0001:00008C50       TfaqhConsumeSerial.btnReadCardClick
 0001:00008D68       Finalization
 0001:00008D98       UAConsumeSerial
 0001:00009104       TfaqhLossOper.Init
 0001:0000910C       TfaqhLossOper.btnQueryClick
 0001:00009128       TfaqhLossOper.btnLossClick
 0001:00009AFC       TfaqhLossOper.btnReadCardClick
 0001:00009C14       TfaqhLossOper.btnPrintClick
 0001:00009C8C       Finalization
 0001:00009CBC       UALossOper
 0001:0000A04C       TfaqhChangeCard.Init
 0001:0000A054       TfaqhChangeCard.btnQueryClick
 0001:0000A070       TfaqhChangeCard.btnLossClick
 0001:0000AC8C       TfaqhChangeCard.btnReadCardClick
 0001:0000ADA4       TfaqhChangeCard.btnPrintClick
 0001:0000AE1C       Finalization
 0001:0000AE4C       UAChangeCard
 0001:0000B1DC       TfaqhDestoryOper.Init
 0001:0000B1E4       TfaqhDestoryOper.btnQueryClick
 0001:0000B200       TfaqhDestoryOper.btnLossClick
 0001:0000BCF4       TfaqhDestoryOper.btnReadCardClick
 0001:0000BE0C       TfaqhDestoryOper.btnPrintClick
 0001:0000BE88       Finalization
 0001:0000BEB8       UADestoryOper
 0001:0000C244       TfaqhReNewApp.Init
 0001:0000C24C       TfaqhReNewApp.btnQueryClick
 0001:0000C268       TfaqhReNewApp.btnLossClick
 0001:0000CDC8       TfaqhReNewApp.btnReadCardClick
 0001:0000CEE0       TfaqhReNewApp.btnPrintClick
 0001:0000CF58       Finalization
 0001:0000CF88       UAReNewApp
 0001:0000D310       TfaqhReNewOper.Init
 0001:0000D3BC       TfaqhReNewOper.btnQueryClick
 0001:0000D3D8       TfaqhReNewOper.btnLossClick
 0001:0000E3E8       TfaqhReNewOper.btnReadCardClick
 0001:0000E500       TfaqhReNewOper.btnPrintClick
 0001:0000E578       Finalization
 0001:0000E5A8       UAReNewOper
 0001:0000E948       TfaqhChangeCardOper.Init
 0001:0000E9F4       TfaqhChangeCardOper.btnQueryClick
 0001:0000EA10       TfaqhChangeCardOper.btnLossClick
 0001:0000FAE8       TfaqhChangeCardOper.btnReadCardClick
 0001:0000FC00       TfaqhChangeCardOper.btnPrintClick
 0001:0000FC78       Finalization
 0001:0000FCA8       UAChangeCardOper
 0001:00010088       TfaqhNonCardChange.Init
 0001:00010134       TfaqhNonCardChange.btnQueryClick
 0001:00010368       TfaqhNonCardChange.btnReadQClick
 0001:00010480       TfaqhNonCardChange.btnPrintClick
 0001:00011544       TfaqhNonCardChange.btnRePrintClick
 0001:000115C0       Finalization
 0001:000115F0       UANonCardChange
 0001:00011AA8       TfaqhMachineConsume.Init
 0001:00011B80       TfaqhMachineConsume.btnMoneyInClick
 0001:00012EC8       TfaqhMachineConsume.WVEdit6KeyPress
 0001:00012F24       TfaqhMachineConsume.readCardInfo
 0001:00013220       TfaqhMachineConsume.btnReadCardInfoClick
 0001:0001329C       TfaqhMachineConsume.cbbTypeKeyDown
 0001:000132BC       TfaqhMachineConsume.edtmoneyKeyDown
 0001:000133BC       TfaqhMachineConsume.writeSuccess
 0001:000134E8       TfaqhMachineConsume.btnRePrintClick
 0001:00013564       Finalization
 0001:000135A0       UAMachineConsume
 0001:00013B34       TfaqhSetCardMony.Init
 0001:00013C00       TfaqhSetCardMony.btnMoneyInClick
 0001:0001465C       TfaqhSetCardMony.readCardInfo
 0001:00014B14       TfaqhSetCardMony.btnReadCardInfoClick
 0001:00014B84       TfaqhSetCardMony.edtmoneyKeyDown
 0001:00014C84       TfaqhSetCardMony.writeSuccess
 0001:00014D84       TfaqhSetCardMony.edtMoneyChange
 0001:00014D8C       TfaqhSetCardMony.rgDirectionClick
 0001:00014D94       TfaqhSetCardMony.calcMoney
 0001:00014F58       Finalization
 0001:00014F94       UASetCardMony
 0001:0001532C       TfaqhappDeal.Init
 0001:00015334       TfaqhappDeal.btnQueryClick
 0001:00015568       TfaqhappDeal.btnReadQClick
 0001:00015680       TfaqhappDeal.btnPrintClick
 0001:0001589C       Finalization
 0001:000158CC       UAappDeal
 0001:00015CC8       TfaqhCardSericalQ.Init
 0001:00015CFC       TfaqhCardSericalQ.btnQueryClick
 0001:0001604C       TfaqhCardSericalQ.btnReadCardClick
 0001:00016164       Finalization
 0001:00016194       UACardSericalQ
 0001:000166B0       TfaqhCardMonyIn.Init
 0001:00016798       TfaqhCardMonyIn.btnMoneyInClick
 0001:00017D0C       TfaqhCardMonyIn.cbbTypeChange
 0001:00017D3C       TfaqhCardMonyIn.WVEdit6KeyPress
 0001:00017D98       TfaqhCardMonyIn.readCardInfo
 0001:00018094       TfaqhCardMonyIn.btnReadCardInfoClick
 0001:00018120       TfaqhCardMonyIn.cbbTypeKeyDown
 0001:00018140       TfaqhCardMonyIn.edtmoneyKeyDown
 0001:0001823C       TfaqhCardMonyIn.btnRePrintClick
 0001:000182B8       Finalization
 0001:000182F4       UACardMonyIn
 0001:0001870C       TfaqhReturnMoney.Init
 0001:000187E4       TfaqhReturnMoney.btnQueryClick
 0001:00018ABC       TfaqhReturnMoney.btnPrintClick
 0001:00019D10       TfaqhReturnMoney.btnReadCardClick
 0001:00019E28       TfaqhReturnMoney.btnRePrintClick
 0001:00019EA4       Finalization
 0001:00019ED4       UAReturnMoney
 0001:0001A6EC       @GetPackageInfoTable
 0001:0001A6F4       @PackageLoad
 0001:0001A704       @PackageUnload
 0001:0001A714       CPUCardUI
 0002:00000000       Module
 0002:00000018       TlsProc
 0002:00001000       ModuleIsLib
 0002:00001001       ModuleIsPackage
 0002:00001004       TlsIndex
 0002:0000100C       HInstance
 0002:00001010       .1
 0002:00001014       TlsBuffer
 0002:0000104C       .1
 0002:0000105C       dmCardDef
 0002:00001060       .2
 0002:00001064       dmCardImp
 0002:00001068       .2
 0002:0000106C       faMachinePara
 0002:00001070       .2
 0002:00001074       faqhMakeAnonCardNo
 0002:00001078       OldMoney
 0002:0000107C       .2
 0002:00001080       faqhTradeCancel
 0002:00001084       .2
 0002:00001088       faqhUnLossOper
 0002:0000108C       .2
 0002:00001090       faqhDestoryApp
 0002:00001094       .2
 0002:00001098       faqhAccountQ
 0002:0000109C       .2
 0002:000010A0       faqhConsumeSerial
 0002:000010A4       .2
 0002:000010A8       faqhLossOper
 0002:000010AC       .2
 0002:000010B0       faqhChangeCard
 0002:000010B4       .2
 0002:000010B8       faqhDestoryOper
 0002:000010BC       .2
 0002:000010C0       faqhReNewApp
 0002:000010C4       .2
 0002:000010C8       faqhReNewOper
 0002:000010CC       .2
 0002:000010D0       faqhChangeCardOper
 0002:000010D4       .2
 0002:000010D8       faqhNonCardChange
 0002:000010DC       .2
 0002:000010E0       faqhMachineConsume
 0002:000010E4       OldMoney
 0002:000010E8       .2
 0002:000010EC       faqhSetCardMony
 0002:000010F0       OldMoney
 0002:000010F4       .2
 0002:000010F8       faqhappDeal
 0002:000010FC       .2
 0002:00001100       faqhCardSericalQ
 0002:00001104       .2
 0002:00001108       faqhCardMonyIn
 0002:0000110C       OldMoney
 0002:00001110       .2
 0002:00001114       faqhReturnMoney
 0002:00001118       .2


Line numbers for NB30(Nb30.pas) segment .text

   270 0001:00000CAC   270 0001:00000CB3

Line numbers for UCMqhCardDef(UCMqhCardDef.pas) segment .text

    49 0001:000017C8    50 0001:000017D1    52 0001:000017EA

Line numbers for UCMqhCardImp(UCMqhCardImp.pas) segment .text

    49 0001:00001AD8    50 0001:00001AE1    52 0001:00001AFA

Line numbers for USeriPara(读写器设置\USeriPara.pas) segment .text

    77 0001:0000253C    78 0001:00002541    89 0001:00002544    90 0001:00002568
    91 0001:00002570    92 0001:00002575    93 0001:0000257A    94 0001:0000257F
    95 0001:0000258F    96 0001:00002594    97 0001:000025A2    98 0001:000025B0
    99 0001:000025BF   100 0001:000025D1   102 0001:00002609   105 0001:0000262E
   107 0001:00002640   108 0001:00002656   109 0001:0000265E   110 0001:00002671
   111 0001:00002684   112 0001:00002697   113 0001:000026AA   114 0001:000026BD
   115 0001:000026D0   116 0001:000026EA   118 0001:00002706   122 0001:00002727
   123 0001:00002735   124 0001:00002756   125 0001:0000276C   126 0001:00002782
   128 0001:00002798   131 0001:000027B9   132 0001:000027D5   133 0001:000027E3
   134 0001:000027E9   136 0001:000027FE   138 0001:0000281F   139 0001:00002824
   140 0001:0000282B   143 0001:00002842   144 0001:00002850   145 0001:00002854
   152 0001:000028C5   155 0001:000029DC   156 0001:000029DF   157 0001:000029EF
   159 0001:000029F9   160 0001:00002A0C   162 0001:00002A0E   163 0001:00002A15
   164 0001:00002A1C   167 0001:00002A38   168 0001:00002A3B   169 0001:00002A4B
   171 0001:00002A55   172 0001:00002A68   174 0001:00002A6A   175 0001:00002A71
   183 0001:00002A94   184 0001:00002AB7   185 0001:00002ABC   186 0001:00002AC1
   187 0001:00002ACF   188 0001:00002AE8   189 0001:00002AF9   191 0001:00002B02
   193 0001:00002B15   194 0001:00002B1A   195 0001:00002B34   197 0001:00002B50
   201 0001:00002B71   202 0001:00002B7F   203 0001:00002BA0   204 0001:00002BB5
   205 0001:00002BCA   207 0001:00002BE0   211 0001:00002C4B   223 0001:00002CF0
   224 0001:00002D14   225 0001:00002D2E   226 0001:00002D33   228 0001:00002D38
   229 0001:00002D3D   230 0001:00002D4B   231 0001:00002D5A   233 0001:00002D76
   237 0001:00002D97   238 0001:00002DA5   239 0001:00002DC6   240 0001:00002DDC
   241 0001:00002DF2   243 0001:00002E08   248 0001:00002E29   249 0001:00002E37
   251 0001:00002E56   252 0001:00002E8A   254 0001:00002E9E   256 0001:00002EA3
   257 0001:00002EB9   258 0001:00002EC1   275 0001:00002ECB   278 0001:00002F07
   280 0001:00002F6B   286 0001:0000307C   287 0001:00003083   288 0001:00003088
   289 0001:00003096   290 0001:000030A5   291 0001:000030AD   294 0001:000030B2
   295 0001:000030C5   299 0001:000030CF   302 0001:000030EF   304 0001:00003101
   315 0001:00003138   316 0001:0000315B   317 0001:00003163   318 0001:00003176
   321 0001:00003183   322 0001:00003190   324 0001:0000319F   325 0001:000031BB
   327 0001:000031C0   328 0001:000031C5   329 0001:000031CA   330 0001:000031D8
   331 0001:000031E7   332 0001:000031F2   334 0001:000031F6   335 0001:0000322A
   338 0001:00003234   341 0001:0000323C   342 0001:00003249   343 0001:00003256
   344 0001:00003263   345 0001:00003270   346 0001:0000327D   347 0001:0000328A
   348 0001:00003297   349 0001:000032A4   351 0001:000032B1   352 0001:000032BC
   354 0001:000032C0   355 0001:000032F4   357 0001:000032FE   368 0001:0000331A
   370 0001:00003336   372 0001:00003352   374 0001:0000336E   403 0001:0000338A
   404 0001:00003398   406 0001:000033BD   407 0001:000033C2   409 0001:000033C8
   410 0001:000033DB   411 0001:000033EE   415 0001:00003406   416 0001:0000341C
   417 0001:00003432   418 0001:00003438   419 0001:00003450   420 0001:00003456
   421 0001:0000346E   422 0001:00003474   423 0001:00003489   424 0001:0000348F
   425 0001:000034A4   426 0001:000034AA   427 0001:000034BF   428 0001:000034C5
   430 0001:000034DA   435 0001:000034F6   436 0001:00003504   439 0001:0000355E
   440 0001:00003563   441 0001:0000357F   462 0001:000035A8   464 0001:00003626
   468 0001:00003714   469 0001:00003719   474 0001:0000371C   475 0001:00003721
   477 0001:00003736   478 0001:00003752   479 0001:00003766   475 0001:00003767
   480 0001:0000376A   521 0001:00003770   529 0001:00003774   530 0001:00003797
   532 0001:000037A1   533 0001:000037BD   535 0001:000037C2   536 0001:000037D7
   537 0001:000037DE   539 0001:000037E2   540 0001:00003818   544 0001:0000381D
   546 0001:00003827   547 0001:00003847   548 0001:0000386A   549 0001:00003878
   550 0001:00003886   552 0001:000038B3   554 0001:000038D0   555 0001:000038F1
   556 0001:00003912   558 0001:00003957   560 0001:00003959   561 0001:00003963
   562 0001:0000396D   563 0001:0000397D   567 0001:0000398C   568 0001:00003991
   569 0001:0000399F   570 0001:000039C5   571 0001:000039E6   573 0001:000039FC
   575 0001:00003A1D   577 0001:00003A2B   578 0001:00003A86   580 0001:00003C34
   581 0001:00003C3D   583 0001:00003C54

Line numbers for UAMakeAnonCardNo(非实名卡号生成\UAMakeAnonCardNo.pas) segment .text

    55 0001:00004060    56 0001:00004063    57 0001:0000406A    58 0001:00004077
    61 0001:0000407C    62 0001:0000409A    64 0001:000040CF    65 0001:000040DA
    67 0001:00004104    68 0001:0000413B    70 0001:00004140    71 0001:00004169
    72 0001:00004192    73 0001:000041BB    74 0001:00004216    79 0001:000042C0
    80 0001:000042E3    81 0001:000042F1    83 0001:0000434D    85 0001:00004354
    86 0001:00004371    87 0001:0000438E    88 0001:000043AB    89 0001:000043B9
    91 0001:000043D8    95 0001:00004409    96 0001:00004438    97 0001:0000446F
   100 0001:000044EC   101 0001:000044FF   103 0001:00004524   105 0001:00004564
   106 0001:0000457E   108 0001:000045AA

Line numbers for UATradeCancel(交易冲正\UATradeCancel.pas) segment .text

    69 0001:000049E0    70 0001:000049E3    71 0001:000049EA    72 0001:000049FD
    73 0001:00004A10    76 0001:00004A14    77 0001:00004A38    79 0001:00004A76
    80 0001:00004A92    82 0001:00004A97    83 0001:00004AB6    85 0001:00004AD0
    86 0001:00004AEC    87 0001:00004AFA    89 0001:00004AFF    90 0001:00004B1E
    92 0001:00004B38    93 0001:00004B54    94 0001:00004B62    96 0001:00004B67
    97 0001:00004BA5    98 0001:00004BE6    99 0001:00004C02   100 0001:00004C21
   101 0001:00004C31   103 0001:00004CB0   108 0001:00004D64   109 0001:00004D7E
   110 0001:00004D8B   111 0001:00004D99   113 0001:00004DB5   115 0001:00004DC1
   117 0001:00004DD6   118 0001:00004DF2   120 0001:00004DF4   121 0001:00004E02
   122 0001:00004E36   130 0001:00004E7C   131 0001:00004E9F   133 0001:00004EA9
   134 0001:00004EC5   136 0001:00004ECA   138 0001:00004EFF   139 0001:00004F0D
   140 0001:00004F2D   141 0001:00004F4D   142 0001:00004F6C   144 0001:00004FA8
   146 0001:00004FAA   147 0001:00004FD6   150 0001:00004FE5   151 0001:00004FFE
   152 0001:00005017   153 0001:00005032   154 0001:0000504D   155 0001:0000506D
   156 0001:00005088   157 0001:000050A3   158 0001:000050BD   159 0001:000050DB
   160 0001:000050E6   161 0001:0000511D   162 0001:000051A0   164 0001:00005338
   165 0001:00005341   167 0001:00005358

Line numbers for UAUNLossOper(解挂操作\UAUNLossOper.pas) segment .text

    57 0001:000056BC    58 0001:000056C1    61 0001:000056C4    62 0001:000056C7
    63 0001:000056CE    64 0001:000056DB    84 0001:000056E0    85 0001:00005704
    87 0001:00005723    88 0001:0000573F    90 0001:00005744    92 0001:00005751
    93 0001:0000575F    95 0001:00005781    96 0001:000057A4    98 0001:000057D6
   100 0001:000057E5   101 0001:000057EA   102 0001:000057F8   103 0001:00005807
   104 0001:00005814   106 0001:00005818   107 0001:00005834   109 0001:0000583E
   110 0001:00005846   111 0001:00005853   112 0001:00005860   113 0001:0000586D
   115 0001:00005871   116 0001:000058A5   118 0001:000058AF   127 0001:000058BA
   129 0001:000058C0   130 0001:000058DC   132 0001:000058E6   134 0001:000058F3
   135 0001:0000590F   137 0001:00005919   138 0001:00005932   139 0001:0000594B
   140 0001:0000596B   141 0001:00005989   142 0001:000059A6   143 0001:000059C9
   144 0001:000059E7   145 0001:00005A05   146 0001:00005A23   153 0001:00005A31
   155 0001:00005A54   156 0001:00005A72   157 0001:00005A7A   158 0001:00005A87
   159 0001:00005A94   160 0001:00005AA9   161 0001:00005AD2   162 0001:00005ADF
   164 0001:00005AE3   168 0001:00005B1E   169 0001:00005B26   170 0001:00005B50
   171 0001:00005B55   173 0001:00005B6E   174 0001:00005B7C   175 0001:00005B8A
   176 0001:00005BA8   177 0001:00005BC6   178 0001:00005BE4   179 0001:00005C02
   180 0001:00005C20   181 0001:00005C32   182 0001:00005C52   183 0001:00005C79
   184 0001:00005CA0   185 0001:00005CC9   186 0001:00005CF0   187 0001:00005D1C
   188 0001:00005D48   189 0001:00005D74   190 0001:00005DA0   191 0001:00005DC7
   192 0001:00005DEE   193 0001:00005E17   194 0001:00005E8C   195 0001:00005EB5
   196 0001:00005EFB   197 0001:00005F21   198 0001:00005F47   199 0001:00005F4E
   200 0001:00005F74   201 0001:00005F7E   203 0001:00005F88   205 0001:00005FAB
   206 0001:00005FAD   209 0001:00005FF7   212 0001:00006007   217 0001:00006033
   218 0001:0000604C   221 0001:00006083   223 0001:00006095   224 0001:000061C9
   229 0001:00006634   230 0001:0000664E   231 0001:0000665B   232 0001:00006669
   234 0001:00006685   236 0001:00006691   238 0001:000066A6   239 0001:000066C2
   241 0001:000066C4   242 0001:000066D2   243 0001:00006706   246 0001:0000674C
   247 0001:0000675F   248 0001:00006799   250 0001:000067F4   251 0001:000067FD
   253 0001:00006814

Line numbers for UADestoryApp(销户申请\UADestoryApp.pas) segment .text

    59 0001:00006BA8    60 0001:00006BBC    61 0001:00006BC1    62 0001:00006BE7
    63 0001:00006C20    66 0001:00006C54    67 0001:00006C57    68 0001:00006C5E
    69 0001:00006C6B    98 0001:00006C70    99 0001:00006C93   101 0001:00006CA0
   103 0001:00006CAA   104 0001:00006CCC   107 0001:00006CD1   109 0001:00006D0C
   110 0001:00006D11   111 0001:00006D1F   112 0001:00006D2E   113 0001:00006D3B
   115 0001:00006D3F   116 0001:00006D61   118 0001:00006D6B   119 0001:00006D73
   120 0001:00006D80   121 0001:00006D8D   122 0001:00006D9A   124 0001:00006DA7
   125 0001:00006DB4   126 0001:00006DC1   127 0001:00006DCE   128 0001:00006DDB
   129 0001:00006DE8   130 0001:00006DF5   132 0001:00006E04   133 0001:00006E4A
   135 0001:00006E54   136 0001:00006E62   137 0001:00006E6D   138 0001:00006E78
   139 0001:00006E83   140 0001:00006E8E   141 0001:00006EA9   142 0001:00006EC5
   143 0001:00006EE0   144 0001:00006EFC   145 0001:00006F18   147 0001:00006F42
   148 0001:00006F44   149 0001:00006F49   150 0001:00006F4B   151 0001:00006F50
   152 0001:00006F55   154 0001:00006F5C   155 0001:00006F75   156 0001:00006F8E
   157 0001:00006FAC   158 0001:00006FCA   159 0001:00006FED   160 0001:0000700A
   161 0001:00007028   162 0001:0000705F   163 0001:0000707C   164 0001:0000709A
   165 0001:000070B7   166 0001:000070D5   167 0001:000070F3   168 0001:00007111
   169 0001:0000712F   170 0001:0000714D   171 0001:0000715B   173 0001:00007184
   175 0001:00007186   176 0001:000071A6   179 0001:000071BA   180 0001:000071BF
   181 0001:000071DD   182 0001:000071FB   183 0001:00007219   185 0001:00007237
   186 0001:0000723F   188 0001:0000725D   189 0001:00007268   190 0001:00007275
   192 0001:00007279   193 0001:000072DC   197 0001:000072E6   199 0001:000072F6
   201 0001:00007304   203 0001:00007319   205 0001:00007321   207 0001:00007336
   209 0001:0000734B   211 0001:00007360   213 0001:00007366   215 0001:0000736F
   217 0001:00007375   221 0001:0000737E   222 0001:00007393   224 0001:0000739D
   226 0001:000073A5   227 0001:000073AA   229 0001:000073C3   230 0001:000073D1
   231 0001:000073DF   232 0001:000073FD   233 0001:0000741B   234 0001:00007439
   235 0001:00007457   236 0001:00007475   237 0001:00007487   238 0001:000074AD
   239 0001:000074D4   240 0001:000074FB   241 0001:00007524   242 0001:0000754B
   243 0001:00007577   244 0001:000075A3   245 0001:000075CF   246 0001:000075FB
   247 0001:00007622   248 0001:00007649   249 0001:00007672   250 0001:000076F1
   251 0001:0000771A   252 0001:00007760   253 0001:00007786   254 0001:000077AC
   255 0001:000077B3   256 0001:000077D9   257 0001:000077E3   259 0001:000077ED
   261 0001:00007810   262 0001:00007812   265 0001:0000785C   269 0001:0000786C
   270 0001:000078A4   272 0001:000078C3   274 0001:00007A0A   279 0001:00007E78
   280 0001:00007E92   281 0001:00007E9F   282 0001:00007EAD   284 0001:00007EC9
   286 0001:00007ED5   288 0001:00007EEA   289 0001:00007F06   291 0001:00007F08
   292 0001:00007F16   293 0001:00007F4A   296 0001:00007F90   297 0001:00007FA3
   298 0001:00007FDD   300 0001:00008038   301 0001:00008041   303 0001:00008058

Line numbers for UAAccountQ(账户信息查询\UAAccountQ.pas) segment .text

    61 0001:000083E4    77 0001:000083E9    80 0001:000083EC    81 0001:00008407
    82 0001:00008426    83 0001:00008436    85 0001:00008461    90 0001:00008474
    91 0001:0000848E    92 0001:0000849B    93 0001:000084A9    95 0001:000084C5
    97 0001:000084D1    99 0001:000084E6   100 0001:00008502   102 0001:00008504
   103 0001:00008512   104 0001:00008546   106 0001:000085BC   107 0001:000085C5
   109 0001:000085DC

Line numbers for UAConsumeSerial(消费流水查询\UAConsumeSerial.pas) segment .text

    56 0001:00008944    57 0001:00008947    58 0001:0000894E    59 0001:00008961
    60 0001:00008974    63 0001:00008978    64 0001:0000899C    65 0001:000089BB
    67 0001:000089D5    68 0001:000089F1    69 0001:000089FF    71 0001:00008A04
    72 0001:00008A23    74 0001:00008A3D    75 0001:00008A59    76 0001:00008A67
    78 0001:00008A6C    79 0001:00008AAE    81 0001:00008AEF    82 0001:00008B0B
    83 0001:00008B19    85 0001:00008B1B    86 0001:00008B3A    87 0001:00008B4A
    89 0001:00008BB4    94 0001:00008C50    95 0001:00008C6A    96 0001:00008C77
    97 0001:00008C85    99 0001:00008CA1   101 0001:00008CAD   103 0001:00008CC2
   104 0001:00008CDE   106 0001:00008CE0   107 0001:00008CEE   108 0001:00008D22
   110 0001:00008D98   111 0001:00008DA1   113 0001:00008DB8

Line numbers for UALossOper(挂失操作\UALossOper.pas) segment .text

    55 0001:00009104    65 0001:00009109    68 0001:0000910C    69 0001:0000910F
    70 0001:00009116    71 0001:00009123    85 0001:00009128    86 0001:0000914C
    87 0001:0000915A    88 0001:0000917C    89 0001:0000919F    91 0001:000091D1
    93 0001:000091E0    94 0001:00009200    95 0001:0000921E    96 0001:0000923B
    97 0001:00009249    98 0001:00009276   101 0001:000092B5   102 0001:000092D1
   103 0001:000092D6   105 0001:000092EF   106 0001:000092FD   107 0001:0000930B
   108 0001:00009329   109 0001:00009347   110 0001:00009365   111 0001:00009383
   112 0001:000093A1   113 0001:000093B3   114 0001:000093D3   115 0001:000093F4
   116 0001:00009415   117 0001:00009438   118 0001:00009459   119 0001:00009485
   120 0001:000094B1   121 0001:000094DD   122 0001:00009509   123 0001:00009530
   124 0001:00009557   125 0001:00009580   126 0001:000095BD   127 0001:000095E6
   128 0001:0000962C   129 0001:00009652   130 0001:00009678   131 0001:0000967F
   132 0001:000096A5   133 0001:000096AF   135 0001:000096B9   137 0001:000096DC
   138 0001:000096DE   141 0001:00009728   145 0001:00009738   146 0001:00009810
   151 0001:00009AFC   152 0001:00009B16   153 0001:00009B23   154 0001:00009B31
   156 0001:00009B4D   158 0001:00009B59   160 0001:00009B6E   161 0001:00009B8A
   163 0001:00009B8C   164 0001:00009B9A   165 0001:00009BCE   168 0001:00009C14
   169 0001:00009C27   170 0001:00009C61   172 0001:00009CBC   173 0001:00009CC5
   175 0001:00009CDC

Line numbers for UAChangeCard(换卡申请\UAChangeCard.pas) segment .text

    57 0001:0000A04C    58 0001:0000A051    61 0001:0000A054    62 0001:0000A057
    63 0001:0000A05E    64 0001:0000A06B    80 0001:0000A070    81 0001:0000A093
    83 0001:0000A09D    84 0001:0000A0B9    87 0001:0000A0BE    89 0001:0000A0F3
    90 0001:0000A101    91 0001:0000A123    92 0001:0000A146    94 0001:0000A178
    96 0001:0000A187    97 0001:0000A1A0    98 0001:0000A1B9    99 0001:0000A1D7
   100 0001:0000A1F5   101 0001:0000A218   102 0001:0000A235   103 0001:0000A253
   104 0001:0000A284   105 0001:0000A292   106 0001:0000A2BF   109 0001:0000A2FE
   110 0001:0000A31A   111 0001:0000A31F   113 0001:0000A338   114 0001:0000A346
   115 0001:0000A354   116 0001:0000A372   117 0001:0000A390   118 0001:0000A3AE
   119 0001:0000A3CC   120 0001:0000A3EA   121 0001:0000A408   122 0001:0000A41A
   123 0001:0000A43A   124 0001:0000A45B   125 0001:0000A47C   126 0001:0000A49F
   127 0001:0000A4C6   128 0001:0000A4F2   129 0001:0000A51E   130 0001:0000A54A
   131 0001:0000A576   132 0001:0000A59D   133 0001:0000A5C4   134 0001:0000A5ED
   135 0001:0000A662   136 0001:0000A68B   137 0001:0000A6D1   138 0001:0000A6FA
   139 0001:0000A721   140 0001:0000A728   141 0001:0000A74E   142 0001:0000A758
   144 0001:0000A762   146 0001:0000A785   147 0001:0000A787   150 0001:0000A7D1
   154 0001:0000A7E1   155 0001:0000A8D3   160 0001:0000AC8C   161 0001:0000ACA6
   162 0001:0000ACB3   163 0001:0000ACC1   165 0001:0000ACDD   167 0001:0000ACE9
   169 0001:0000ACFE   170 0001:0000AD1A   172 0001:0000AD1C   173 0001:0000AD2A
   174 0001:0000AD5E   177 0001:0000ADA4   178 0001:0000ADB7   179 0001:0000ADF1
   181 0001:0000AE4C   182 0001:0000AE55   184 0001:0000AE6C

Line numbers for UADestoryOper(销户操作\UADestoryOper.pas) segment .text

    57 0001:0000B1DC    58 0001:0000B1E1    61 0001:0000B1E4    62 0001:0000B1E7
    63 0001:0000B1EE    64 0001:0000B1FB    80 0001:0000B200    81 0001:0000B224
    83 0001:0000B22E    84 0001:0000B24A    87 0001:0000B24F    89 0001:0000B284
    90 0001:0000B292    91 0001:0000B2B4    93 0001:0000B2E6    95 0001:0000B2F5
    96 0001:0000B30E    97 0001:0000B327    98 0001:0000B345    99 0001:0000B363
   100 0001:0000B386   101 0001:0000B3A4   102 0001:0000B3C1   103 0001:0000B3CF
   105 0001:0000B3F8   107 0001:0000B3FA   108 0001:0000B414   111 0001:0000B423
   113 0001:0000B441   114 0001:0000B45B   115 0001:0000B460   117 0001:0000B479
   118 0001:0000B487   119 0001:0000B495   120 0001:0000B4B3   121 0001:0000B4D1
   122 0001:0000B4EF   123 0001:0000B50D   124 0001:0000B52B   125 0001:0000B549
   126 0001:0000B55B   127 0001:0000B57B   128 0001:0000B59C   129 0001:0000B5BD
   130 0001:0000B5E0   131 0001:0000B607   132 0001:0000B633   133 0001:0000B65F
   134 0001:0000B68B   135 0001:0000B6B7   136 0001:0000B6DE   137 0001:0000B705
   138 0001:0000B72E   139 0001:0000B76B   140 0001:0000B794   141 0001:0000B7DA
   142 0001:0000B800   143 0001:0000B826   144 0001:0000B82D   145 0001:0000B853
   146 0001:0000B85D   148 0001:0000B867   150 0001:0000B87E   153 0001:0000B8B2
   157 0001:0000B8C2   158 0001:0000B8D6   159 0001:0000B9B3   164 0001:0000BCF4
   165 0001:0000BD0E   166 0001:0000BD1B   167 0001:0000BD29   169 0001:0000BD45
   171 0001:0000BD51   173 0001:0000BD66   174 0001:0000BD82   176 0001:0000BD84
   177 0001:0000BD92   178 0001:0000BDC6   181 0001:0000BE0C   182 0001:0000BE1F
   183 0001:0000BE59   185 0001:0000BEB8   186 0001:0000BEC1   188 0001:0000BED8

Line numbers for UAReNewApp(补办申请\UAReNewApp.pas) segment .text

    57 0001:0000C244    58 0001:0000C249    61 0001:0000C24C    62 0001:0000C24F
    63 0001:0000C256    64 0001:0000C263    79 0001:0000C268    80 0001:0000C28C
    82 0001:0000C296    83 0001:0000C2B2    86 0001:0000C2B7    88 0001:0000C2EC
    89 0001:0000C2FA    90 0001:0000C31C    91 0001:0000C33F    93 0001:0000C371
    95 0001:0000C380    96 0001:0000C399    97 0001:0000C3B2    98 0001:0000C3D0
    99 0001:0000C3EE   100 0001:0000C411   101 0001:0000C42E   102 0001:0000C44C
   103 0001:0000C47D   104 0001:0000C48B   105 0001:0000C4B8   108 0001:0000C4F7
   109 0001:0000C513   110 0001:0000C518   112 0001:0000C531   113 0001:0000C53F
   114 0001:0000C54D   115 0001:0000C56B   116 0001:0000C589   117 0001:0000C5A7
   118 0001:0000C5C5   119 0001:0000C5E3   120 0001:0000C5F5   121 0001:0000C615
   122 0001:0000C636   123 0001:0000C657   124 0001:0000C67A   125 0001:0000C6A1
   126 0001:0000C6CD   127 0001:0000C6F9   128 0001:0000C725   129 0001:0000C751
   130 0001:0000C778   131 0001:0000C79F   132 0001:0000C7C8   133 0001:0000C805
   134 0001:0000C82E   135 0001:0000C874   136 0001:0000C89A   137 0001:0000C8C0
   138 0001:0000C8C7   139 0001:0000C8ED   140 0001:0000C8F7   142 0001:0000C901
   144 0001:0000C918   147 0001:0000C94C   151 0001:0000C95C   152 0001:0000CA43
   157 0001:0000CDC8   158 0001:0000CDE2   159 0001:0000CDEF   160 0001:0000CDFD
   162 0001:0000CE19   164 0001:0000CE25   166 0001:0000CE3A   167 0001:0000CE56
   169 0001:0000CE58   170 0001:0000CE66   171 0001:0000CE9A   174 0001:0000CEE0
   175 0001:0000CEF3   176 0001:0000CF2D   178 0001:0000CF88   179 0001:0000CF91
   181 0001:0000CFA8

Line numbers for UAReNewOper(补办操作\UAReNewOper.pas) segment .text

    56 0001:0000D310    57 0001:0000D324    58 0001:0000D329    59 0001:0000D34F
    60 0001:0000D388    63 0001:0000D3BC    64 0001:0000D3BF    65 0001:0000D3C6
    66 0001:0000D3D3    92 0001:0000D3D8    93 0001:0000D3FC    95 0001:0000D409
    97 0001:0000D413    98 0001:0000D435   101 0001:0000D43A   103 0001:0000D475
   104 0001:0000D47A   105 0001:0000D47F   106 0001:0000D48D   107 0001:0000D49C
   108 0001:0000D4A9   110 0001:0000D4AD   111 0001:0000D4CF   113 0001:0000D4D9
   114 0001:0000D4E1   115 0001:0000D4EE   116 0001:0000D4FB   117 0001:0000D508
   120 0001:0000D515   122 0001:0000D524   123 0001:0000D56A   125 0001:0000D574
   126 0001:0000D582   128 0001:0000D58D   129 0001:0000D5A8   130 0001:0000D5C3
   133 0001:0000D5EE   134 0001:0000D5F0   135 0001:0000D5F2   137 0001:0000D5FC
   138 0001:0000D615   139 0001:0000D62E   140 0001:0000D64C   141 0001:0000D66A
   142 0001:0000D68D   143 0001:0000D6AB   144 0001:0000D6E8   145 0001:0000D706
   146 0001:0000D723   147 0001:0000D740   148 0001:0000D75E   149 0001:0000D76C
   151 0001:0000D795   153 0001:0000D797   154 0001:0000D7B7   157 0001:0000D7CB
   158 0001:0000D7E9   159 0001:0000D807   160 0001:0000D825   161 0001:0000D843
   163 0001:0000D861   164 0001:0000D869   166 0001:0000D884   167 0001:0000D88F
   168 0001:0000D89C   170 0001:0000D8A0   171 0001:0000D903   174 0001:0000D90D
   176 0001:0000D91D   178 0001:0000D92B   180 0001:0000D940   182 0001:0000D948
   184 0001:0000D95D   186 0001:0000D972   188 0001:0000D987   190 0001:0000D990
   192 0001:0000D999   194 0001:0000D99F   198 0001:0000D9A5   199 0001:0000D9BA
   200 0001:0000D9C4   201 0001:0000D9CC   203 0001:0000DA04   205 0001:0000DA1D
   206 0001:0000DA2B   207 0001:0000DA49   208 0001:0000DA67   209 0001:0000DA85
   210 0001:0000DAA3   211 0001:0000DAC1   212 0001:0000DAD3   213 0001:0000DAF9
   214 0001:0000DB20   215 0001:0000DB47   216 0001:0000DB70   217 0001:0000DB97
   218 0001:0000DBC3   219 0001:0000DBEF   220 0001:0000DC1B   221 0001:0000DC47
   222 0001:0000DC6E   223 0001:0000DC95   224 0001:0000DCBE   225 0001:0000DD34
   226 0001:0000DD5D   227 0001:0000DDA3   228 0001:0000DDC9   229 0001:0000DDEF
   230 0001:0000DDF6   231 0001:0000DE1C   232 0001:0000DE26   234 0001:0000DE30
   236 0001:0000DE47   241 0001:0000DE7B   242 0001:0000DE83   244 0001:0000DE93
   245 0001:0000DFBF   250 0001:0000E3E8   251 0001:0000E402   252 0001:0000E40F
   253 0001:0000E41D   255 0001:0000E439   257 0001:0000E445   259 0001:0000E45A
   260 0001:0000E476   262 0001:0000E478   263 0001:0000E486   264 0001:0000E4BA
   267 0001:0000E500   268 0001:0000E513   269 0001:0000E54D   271 0001:0000E5A8
   272 0001:0000E5B1   274 0001:0000E5C8

Line numbers for UAChangeCardOper(换卡操作\UAChangeCardOper.pas) segment .text

    56 0001:0000E948    57 0001:0000E95C    58 0001:0000E961    59 0001:0000E987
    60 0001:0000E9C0    63 0001:0000E9F4    64 0001:0000E9F7    65 0001:0000E9FE
    66 0001:0000EA0B    92 0001:0000EA10    93 0001:0000EA34    95 0001:0000EA41
    97 0001:0000EA4B    98 0001:0000EA6D   101 0001:0000EA72   103 0001:0000EAAD
   104 0001:0000EAB2   105 0001:0000EAB7   106 0001:0000EAC5   107 0001:0000EAD4
   108 0001:0000EAE1   110 0001:0000EAE5   111 0001:0000EB07   113 0001:0000EB11
   114 0001:0000EB19   115 0001:0000EB26   116 0001:0000EB33   117 0001:0000EB40
   120 0001:0000EB4D   122 0001:0000EB5C   123 0001:0000EBA2   125 0001:0000EBAC
   126 0001:0000EBBA   128 0001:0000EBC5   129 0001:0000EBE0   130 0001:0000EBFB
   133 0001:0000EC26   134 0001:0000EC28   135 0001:0000EC2A   137 0001:0000EC34
   138 0001:0000EC4D   139 0001:0000EC66   140 0001:0000EC84   141 0001:0000ECA2
   142 0001:0000ECC5   143 0001:0000ED0E   144 0001:0000ED2C   145 0001:0000ED69
   146 0001:0000ED87   147 0001:0000EDA4   148 0001:0000EDC1   149 0001:0000EDDF
   150 0001:0000EDED   152 0001:0000EE16   154 0001:0000EE18   155 0001:0000EE38
   158 0001:0000EE4C   159 0001:0000EE6A   160 0001:0000EE88   161 0001:0000EEA6
   162 0001:0000EEC4   164 0001:0000EEE2   165 0001:0000EEEA   166 0001:0000EF05
   167 0001:0000EF10   168 0001:0000EF1D   170 0001:0000EF21   171 0001:0000EF84
   174 0001:0000EF8E   176 0001:0000EF9E   178 0001:0000EFA7   180 0001:0000EFBC
   182 0001:0000EFC4   184 0001:0000EFD9   186 0001:0000EFEE   188 0001:0000F003
   190 0001:0000F00C   192 0001:0000F015   194 0001:0000F01B   198 0001:0000F021
   199 0001:0000F036   200 0001:0000F040   201 0001:0000F048   202 0001:0000F080
   204 0001:0000F099   205 0001:0000F0A7   206 0001:0000F0C5   207 0001:0000F0E3
   208 0001:0000F101   209 0001:0000F11F   210 0001:0000F13D   211 0001:0000F14F
   212 0001:0000F175   213 0001:0000F19C   214 0001:0000F1C3   215 0001:0000F1EC
   216 0001:0000F224   217 0001:0000F250   218 0001:0000F27C   219 0001:0000F2A8
   220 0001:0000F2D4   221 0001:0000F2FB   222 0001:0000F322   223 0001:0000F34B
   224 0001:0000F3C1   225 0001:0000F3EA   226 0001:0000F430   227 0001:0000F456
   228 0001:0000F47C   229 0001:0000F483   230 0001:0000F4A9   231 0001:0000F4B3
   233 0001:0000F4BD   235 0001:0000F4E0   236 0001:0000F4E2   241 0001:0000F52C
   242 0001:0000F534   244 0001:0000F544   245 0001:0000F69C   250 0001:0000FAE8
   251 0001:0000FB02   252 0001:0000FB0F   253 0001:0000FB1D   255 0001:0000FB39
   257 0001:0000FB45   259 0001:0000FB5A   260 0001:0000FB76   262 0001:0000FB78
   263 0001:0000FB86   264 0001:0000FBBA   267 0001:0000FC00   268 0001:0000FC13
   269 0001:0000FC4D   271 0001:0000FCA8   272 0001:0000FCB1   274 0001:0000FCC8

Line numbers for UANonCardChange(非记名卡换卡\UANonCardChange.pas) segment .text

    60 0001:00010088    61 0001:0001009C    62 0001:000100A1    63 0001:000100C7
    65 0001:00010100    68 0001:00010134    69 0001:00010157    70 0001:00010176
    72 0001:00010190    73 0001:000101AC    74 0001:000101BA    76 0001:000101BF
    77 0001:000101DE    79 0001:000101F8    80 0001:00010214    81 0001:00010222
    83 0001:00010224    84 0001:00010238    85 0001:00010248    86 0001:0001025C
    87 0001:0001026C    88 0001:00010289    90 0001:000102DE    95 0001:00010368
    96 0001:00010382    97 0001:0001038F    98 0001:0001039D   100 0001:000103B9
   102 0001:000103C5   104 0001:000103DA   105 0001:000103F6   107 0001:000103F8
   108 0001:00010406   109 0001:0001043A   135 0001:00010480   136 0001:000104A3
   138 0001:000104B0   140 0001:000104BA   141 0001:000104DC   144 0001:000104E1
   146 0001:0001051C   147 0001:00010521   148 0001:00010526   149 0001:00010534
   150 0001:00010543   151 0001:00010550   153 0001:00010554   154 0001:00010576
   156 0001:00010580   157 0001:00010588   158 0001:00010595   159 0001:000105A2
   160 0001:000105AF   163 0001:000105BC   165 0001:000105CB   166 0001:00010611
   168 0001:0001061B   169 0001:00010629   171 0001:00010634   172 0001:0001064F
   173 0001:0001066A   176 0001:00010695   177 0001:00010697   178 0001:00010699
   180 0001:000106A3   181 0001:000106BC   182 0001:000106D5   183 0001:000106F3
   184 0001:00010711   185 0001:00010734   186 0001:00010771   189 0001:000107BA
   190 0001:000107D8   191 0001:000107F6   192 0001:00010813   193 0001:00010830
   194 0001:0001084E   195 0001:0001085C   197 0001:00010885   199 0001:00010887
   200 0001:000108A7   203 0001:000108BB   204 0001:000108D9   205 0001:000108F7
   206 0001:00010915   207 0001:00010933   209 0001:00010951   210 0001:00010959
   211 0001:00010974   212 0001:0001097F   213 0001:0001098C   215 0001:00010990
   216 0001:000109F3   219 0001:000109FD   221 0001:00010A0D   223 0001:00010A17
   225 0001:00010A2C   227 0001:00010A34   229 0001:00010A49   231 0001:00010A5E
   233 0001:00010A73   235 0001:00010A7C   237 0001:00010A85   239 0001:00010A8B
   243 0001:00010A91   244 0001:00010AA6   245 0001:00010AB0   246 0001:00010AB8
   247 0001:00010AF0   249 0001:00010B09   250 0001:00010B17   251 0001:00010B35
   252 0001:00010B53   253 0001:00010B71   254 0001:00010B8F   255 0001:00010BAD
   256 0001:00010BBF   257 0001:00010BE5   258 0001:00010C0C   259 0001:00010C33
   260 0001:00010C5C   261 0001:00010C83   262 0001:00010CAF   263 0001:00010CDB
   264 0001:00010D07   265 0001:00010D33   266 0001:00010D5A   267 0001:00010D81
   268 0001:00010DAA   269 0001:00010E20   270 0001:00010E49   271 0001:00010E8F
   272 0001:00010EB5   273 0001:00010EDB   274 0001:00010EE2   275 0001:00010F08
   276 0001:00010F12   278 0001:00010F1C   280 0001:00010F3F   281 0001:00010F41
   286 0001:00010F8B   287 0001:00010F93   289 0001:00010FA3   290 0001:000110E2
   293 0001:00011544   294 0001:00011557   295 0001:00011591   297 0001:000115F0
   298 0001:000115F9   300 0001:00011610

Line numbers for UAMachineConsume(读卡器消费\UAMachineConsume.pas) segment .text

    73 0001:00011AA8    74 0001:00011ABE    75 0001:00011AC5    76 0001:00011AD2
    77 0001:00011ADF    78 0001:00011AED    79 0001:00011B13    80 0001:00011B4C
   106 0001:00011B80   107 0001:00011BA2   109 0001:00011C36   110 0001:00011C58
   111 0001:00011C66   113 0001:00011C6B   114 0001:00011C70   115 0001:00011C75
   116 0001:00011C83   117 0001:00011C92   118 0001:00011C9D   120 0001:00011CA1
   121 0001:00011CC3   123 0001:00011CCD   125 0001:00011CD5   126 0001:00011CE2
   127 0001:00011CEF   128 0001:00011CFC   129 0001:00011D09   131 0001:00011D16
   133 0001:00011D25   134 0001:00011D6B   137 0001:00011D75   139 0001:00011D85
   140 0001:00011DA7   141 0001:00011DB5   142 0001:00011DC2   145 0001:00011DCC
   146 0001:00011DDA   147 0001:00011DF6   148 0001:00011E11   149 0001:00011E2D
   150 0001:00011E49   152 0001:00011E63   153 0001:00011E85   155 0001:00011E99
   156 0001:00011EB2   157 0001:00011ECB   159 0001:00011ED9   160 0001:00011EF6
   161 0001:00011F11   162 0001:00011F2C   163 0001:00011F4C   164 0001:00011F70
   165 0001:00011F8B   166 0001:00011FA6   167 0001:00011FC1   168 0001:00011FDB
   169 0001:00012002   170 0001:0001201D   171 0001:0001202B   173 0001:00012051
   175 0001:00012053   176 0001:00012073   179 0001:00012087   181 0001:000120A3
   182 0001:000120B6   183 0001:000120E8   185 0001:000120F2   186 0001:0001210C
   187 0001:00012127   188 0001:00012142   191 0001:0001215D   193 0001:0001216D
   195 0001:0001219A   197 0001:000121B3   199 0001:000121BB   201 0001:000121D0
   203 0001:000121E5   205 0001:000121FA   207 0001:00012203   209 0001:00012209
   211 0001:00012212   213 0001:00012218   215 0001:00012221   217 0001:0001223A
   218 0001:00012257   219 0001:00012272   220 0001:0001228D   221 0001:000122AD
   222 0001:000122D1   223 0001:000122EC   224 0001:00012307   225 0001:00012322
   226 0001:00012358   232 0001:00012365   233 0001:00012387   235 0001:00012391
   237 0001:000123A4   239 0001:000123BA   241 0001:000123C8   242 0001:000123E3
   243 0001:000123FE   244 0001:00012419   245 0001:00012434   246 0001:00012445
   247 0001:0001246B   248 0001:00012492   249 0001:000124B9   250 0001:000124E2
   251 0001:00012509   252 0001:00012535   253 0001:00012561   254 0001:0001258D
   255 0001:000125B9   256 0001:000125E0   257 0001:00012607   258 0001:00012630
   259 0001:000126AF   260 0001:000126D8   261 0001:0001274D   262 0001:00012776
   263 0001:000127BC   264 0001:000127C3   265 0001:000127E9   266 0001:000127F3
   268 0001:000127FD   270 0001:00012820   271 0001:00012822   275 0001:0001286C
   276 0001:00012874   278 0001:000129D9   281 0001:00012EC8   283 0001:00012EE1
   284 0001:00012EFD   285 0001:00012F1D   294 0001:00012F24   295 0001:00012F48
   296 0001:00012F4C   298 0001:00012F59   299 0001:00012F63   301 0001:00012F67
   302 0001:00012F9B   305 0001:00012FA0   307 0001:00012FAE   309 0001:00012FB5
   310 0001:00012FC1   311 0001:00012FCD   312 0001:00012FD9   313 0001:00012FE5
   316 0001:00012FF1   317 0001:00012FFB   319 0001:00012FFF   320 0001:00013033
   323 0001:00013038   324 0001:00013050   325 0001:00013068   327 0001:00013080
   328 0001:00013097   330 0001:000130A0   331 0001:000130BC   332 0001:000130CA
   334 0001:000130CF   335 0001:00013114   336 0001:00013159   337 0001:000131BF
   342 0001:00013220   343 0001:00013227   344 0001:0001322C   345 0001:0001323A
   346 0001:00013249   347 0001:00013257   348 0001:0001325E   349 0001:0001326B
   351 0001:00013285   353 0001:00013297   357 0001:0001329C   358 0001:000132A2
   360 0001:000132A8   362 0001:000132B6   366 0001:000132BC   367 0001:000132D7
   369 0001:000132DD   371 0001:0001333B   372 0001:00013349   374 0001:0001334B
   376 0001:00013384   379 0001:000133BC   380 0001:000133E1   381 0001:0001341C
   382 0001:00013424   383 0001:00013436   384 0001:00013446   385 0001:00013453
   386 0001:00013461   388 0001:000134AE   391 0001:000134E8   392 0001:000134FB
   393 0001:00013535   395 0001:000135A0   396 0001:000135BA   398 0001:000135E6

Line numbers for UASetCardMony(卡余额调整\UASetCardMony.pas) segment .text

    83 0001:00013B34    84 0001:00013B4A    85 0001:00013B51    86 0001:00013B5E
    87 0001:00013B6C    88 0001:00013B92    89 0001:00013BCB   108 0001:00013C00
   109 0001:00013C24   112 0001:00013CC4   113 0001:00013CE6   114 0001:00013CF7
   116 0001:00013CFC   117 0001:00013D0A   120 0001:00013D41   121 0001:00013D63
   122 0001:00013D74   124 0001:00013D83   125 0001:00013D88   126 0001:00013D96
   127 0001:00013DA5   128 0001:00013DB2   130 0001:00013DB6   131 0001:00013DD8
   146 0001:00013DE2   148 0001:00013DF5   149 0001:00013E17   150 0001:00013E28
   151 0001:00013E38   155 0001:00013E42   157 0001:00013E4A   158 0001:00013E58
   159 0001:00013E65   161 0001:00013E69   162 0001:00013EB1   166 0001:00013EBB
   167 0001:00013EC9   168 0001:00013EE4   169 0001:00013EFF   170 0001:00013F1B
   172 0001:00013F45   173 0001:00013F67   176 0001:00013F7B   177 0001:00013F8D
   179 0001:00013F96   180 0001:00013F9D   181 0001:00013FEC   182 0001:00014022
   183 0001:00014045   184 0001:0001407C   185 0001:0001409A   186 0001:000140B7
   187 0001:000140D4   188 0001:000140F1   189 0001:0001410F   190 0001:0001412D
   191 0001:0001416E   192 0001:0001417C   194 0001:0001419B   195 0001:000141B1
   196 0001:000141E9   198 0001:000141F3   201 0001:00014211   202 0001:0001422F
   205 0001:0001424D   207 0001:0001425D   209 0001:00014267   211 0001:00014280
   213 0001:00014288   215 0001:0001429D   217 0001:000142B2   219 0001:000142C7
   221 0001:000142CD   223 0001:000142D6   225 0001:000142DC   227 0001:000142E2
   229 0001:000142EB   230 0001:00014300   231 0001:00014307   241 0001:0001431F
   244 0001:0001433C   246 0001:00014440   254 0001:0001465C   255 0001:00014681
   256 0001:00014685   267 0001:00014692   268 0001:0001469E   270 0001:000146A2
   271 0001:000146BE   274 0001:000146C3   276 0001:000146D3   279 0001:000146DA
   280 0001:000146E6   281 0001:000146F2   282 0001:000146FE   283 0001:0001470A
   284 0001:00014716   285 0001:00014722   286 0001:0001472E   288 0001:00014732
   289 0001:00014768   293 0001:0001476D   295 0001:00014788   296 0001:000147A3
   298 0001:000147B4   299 0001:000147CB   300 0001:00014813   302 0001:00014835
   303 0001:00014849   304 0001:00014864   307 0001:0001487F   308 0001:000148A9
   309 0001:000148B7   311 0001:000148E0   313 0001:000148E2   314 0001:000148FC
   315 0001:0001490D   319 0001:0001491C   321 0001:00014965   322 0001:00014973
   323 0001:00014995   326 0001:00014A01   337 0001:00014A06   338 0001:00014A8C
   343 0001:00014B14   344 0001:00014B1B   345 0001:00014B20   346 0001:00014B2E
   347 0001:00014B3D   348 0001:00014B4B   349 0001:00014B52   351 0001:00014B6C
   353 0001:00014B7E   357 0001:00014B84   358 0001:00014B9F   360 0001:00014BA5
   362 0001:00014C03   363 0001:00014C11   365 0001:00014C13   367 0001:00014C4C
   370 0001:00014C84   371 0001:00014CA9   372 0001:00014CE4   373 0001:00014CEC
   374 0001:00014CF9   375 0001:00014D07   377 0001:00014D54   381 0001:00014D84
   382 0001:00014D89   386 0001:00014D8C   387 0001:00014D91   390 0001:00014D94
   391 0001:00014DB7   393 0001:00014DCB   395 0001:00014DDB   396 0001:00014DE9
   398 0001:00014DF8   402 0001:00014E4C   405 0001:00014EAD   406 0001:00014EC9
   408 0001:00014F27   410 0001:00014F94   411 0001:00014FAE   413 0001:00014FDA

Line numbers for UAappDeal(申请单处理\UAappDeal.pas) segment .text

    56 0001:0001532C    69 0001:00015331    72 0001:00015334    73 0001:00015357
    74 0001:00015376    76 0001:00015390    77 0001:000153AC    78 0001:000153BA
    80 0001:000153BF    81 0001:000153DE    83 0001:000153F8    84 0001:00015414
    85 0001:00015422    87 0001:00015424    88 0001:00015438    89 0001:00015448
    90 0001:0001545C    91 0001:0001546C    92 0001:00015489    94 0001:000154DE
    99 0001:00015568   100 0001:00015582   101 0001:0001558F   102 0001:0001559D
   104 0001:000155B9   106 0001:000155C5   108 0001:000155DA   109 0001:000155F6
   111 0001:000155F8   112 0001:00015606   113 0001:0001563A   116 0001:00015680
   117 0001:0001569B   119 0001:000156D0   120 0001:000156ED   121 0001:00015724
   122 0001:0001572F   123 0001:00015759   125 0001:00015777   126 0001:000157EB
   128 0001:000158CC   129 0001:000158D5   131 0001:000158EC

Line numbers for UACardSericalQ(交易流水查询\UACardSericalQ.pas) segment .text

    64 0001:00015CC8    65 0001:00015CCB    81 0001:00015CD2    82 0001:00015CE5
    83 0001:00015CF8    86 0001:00015CFC    87 0001:00015D20    89 0001:00015D5E
    90 0001:00015D7A    92 0001:00015D7F    93 0001:00015D9E    95 0001:00015DB8
    96 0001:00015DD4    97 0001:00015DE2    99 0001:00015DE7   100 0001:00015E06
   102 0001:00015E20   103 0001:00015E3C   104 0001:00015E4A   106 0001:00015E4F
   107 0001:00015E8D   108 0001:00015ECE   109 0001:00015EEA   110 0001:00015F09
   111 0001:00015F19   113 0001:00015F98   118 0001:0001604C   119 0001:00016066
   120 0001:00016073   121 0001:00016081   123 0001:0001609D   125 0001:000160A9
   127 0001:000160BE   128 0001:000160DA   130 0001:000160DC   131 0001:000160EA
   132 0001:0001611E   134 0001:00016194   135 0001:0001619D   137 0001:000161B4

Line numbers for UACardMonyIn(校园卡充值\UACardMonyIn.pas) segment .text

    78 0001:000166B0    79 0001:000166C6    80 0001:000166CD    81 0001:000166DA
    83 0001:000166E7    84 0001:000166F4    85 0001:00016702    86 0001:00016728
    87 0001:00016761   117 0001:00016798   118 0001:000167BB   120 0001:0001685B
   121 0001:0001687D   122 0001:0001688E   124 0001:00016893   125 0001:00016898
   126 0001:0001689D   127 0001:000168AB   128 0001:000168BA   129 0001:000168C5
   131 0001:000168C9   132 0001:000168EB   134 0001:000168F5   136 0001:000168FD
   137 0001:0001690A   138 0001:00016917   139 0001:00016924   140 0001:00016931
   142 0001:0001693E   144 0001:0001694D   145 0001:00016993   148 0001:0001699D
   150 0001:000169B0   151 0001:000169D2   152 0001:000169E3   153 0001:000169F3
   155 0001:000169FD   157 0001:00016A07   158 0001:00016A29   162 0001:00016A33
   163 0001:00016A41   164 0001:00016A5C   165 0001:00016A77   166 0001:00016A92
   167 0001:00016AAE   169 0001:00016AC8   170 0001:00016AEA   172 0001:00016AFE
   173 0001:00016B17   174 0001:00016B30   213 0001:00016B41   215 0001:00016B51
   217 0001:00016B7E   219 0001:00016B97   221 0001:00016B9F   223 0001:00016BB4
   225 0001:00016BC9   227 0001:00016BDE   230 0001:00016BF7   232 0001:00016C29
   234 0001:00016C8C   236 0001:00016C95   238 0001:00016CAE   240 0001:00016CB4
   242 0001:00016CBA   251 0001:00016CC0   252 0001:00016CCC   254 0001:00016CD4
   257 0001:00016CE1   260 0001:00016CE8   262 0001:00016CF6   263 0001:00016D18
   264 0001:00016D24   266 0001:00016D2E   267 0001:00016D39   269 0001:00016D3D
   274 0001:00016D61   275 0001:00016D74   258 0001:00016D96   281 0001:00016D9B
   282 0001:00016DA2   283 0001:00016DAE   285 0001:00016DB2   290 0001:00016DBF
   291 0001:00016DF8   292 0001:00016E31   293 0001:00016E54   294 0001:00016E8D
   296 0001:00016EC6   297 0001:00016EF0   298 0001:00016EFE   299 0001:00016F0C
   302 0001:00016F53   303 0001:00016F58   308 0001:00016F62   309 0001:00016F6E
   314 0001:00016FAE   315 0001:00017001   316 0001:00017009   318 0001:00017022
   319 0001:00017030   320 0001:0001704D   321 0001:0001706B   322 0001:00017088
   323 0001:000170A5   324 0001:000170B3   325 0001:000170C1   327 0001:000170E4
   328 0001:00017101   329 0001:0001712C   330 0001:00017140   331 0001:00017154
   335 0001:00017177   336 0001:0001717C   337 0001:0001718F   338 0001:000171A1
   339 0001:000171C7   340 0001:000171EE   341 0001:00017215   342 0001:0001723E
   343 0001:00017265   344 0001:00017291   345 0001:000172BD   346 0001:000172E9
   347 0001:0001734F   348 0001:00017376   349 0001:0001739D   350 0001:000173C6
   351 0001:0001743F   352 0001:00017468   353 0001:000174DD   354 0001:00017506
   355 0001:0001754C   356 0001:00017553   357 0001:00017579   358 0001:00017583
   360 0001:0001758D   362 0001:000175B0   363 0001:000175B2   368 0001:000175FC
   369 0001:00017604   371 0001:000177CD   374 0001:00017D0C   377 0001:00017D0F
   379 0001:00017D1E   384 0001:00017D2D   387 0001:00017D3A   390 0001:00017D3C
   392 0001:00017D55   393 0001:00017D71   394 0001:00017D91   403 0001:00017D98
   404 0001:00017DBC   405 0001:00017DC0   407 0001:00017DCD   408 0001:00017DD7
   410 0001:00017DDB   411 0001:00017E0F   414 0001:00017E14   416 0001:00017E22
   418 0001:00017E29   419 0001:00017E35   420 0001:00017E41   421 0001:00017E4D
   422 0001:00017E59   425 0001:00017E65   426 0001:00017E6F   428 0001:00017E73
   429 0001:00017EA7   432 0001:00017EAC   433 0001:00017EC4   434 0001:00017EDC
   436 0001:00017EF4   437 0001:00017F0B   439 0001:00017F14   440 0001:00017F30
   441 0001:00017F3E   443 0001:00017F43   444 0001:00017F88   473 0001:00017FCD
   474 0001:00018033   479 0001:00018094   480 0001:0001809B   481 0001:000180A0
   482 0001:000180AE   483 0001:000180BD   484 0001:000180CB   493 0001:000180D2
   494 0001:000180DF   495 0001:000180ED   497 0001:00018107   499 0001:00018119
   503 0001:00018120   504 0001:00018126   511 0001:0001812C   513 0001:0001813A
   517 0001:00018140   518 0001:0001815B   520 0001:00018161   522 0001:000181BF
   523 0001:000181CD   525 0001:000181CF   527 0001:00018208   543 0001:0001823C
   544 0001:0001824F   545 0001:00018289   547 0001:000182F4   548 0001:0001830E
   550 0001:0001833A

Line numbers for UAReturnMoney(充值回退\UAReturnMoney.pas) segment .text

    62 0001:0001870C    63 0001:00018723    64 0001:0001872A    65 0001:00018750
    66 0001:0001876C    67 0001:0001877F    68 0001:000187AF    71 0001:000187E4
    72 0001:00018808    73 0001:00018827    75 0001:00018841    76 0001:0001885D
    77 0001:0001886B    79 0001:00018870    80 0001:0001888F    82 0001:000188A9
    83 0001:000188C5    84 0001:000188D3    86 0001:000188D8    87 0001:0001891A
    89 0001:0001895B    90 0001:00018977    91 0001:00018985    93 0001:00018987
    94 0001:000189A6    95 0001:000189B6    97 0001:00018A20   132 0001:00018ABC
   133 0001:00018AE0   135 0001:00018AED   136 0001:00018B0A   137 0001:00018B1E
   138 0001:00018B32   139 0001:00018B46   140 0001:00018B5A   141 0001:00018B6E
   142 0001:00018B82   144 0001:00018B96   145 0001:00018BAA   146 0001:00018BBE
   147 0001:00018BCE   148 0001:00018BD3   149 0001:00018BD8   150 0001:00018BE6
   151 0001:00018BF5   152 0001:00018C00   154 0001:00018C04   155 0001:00018C26
   157 0001:00018C30   158 0001:00018C38   159 0001:00018C45   160 0001:00018C52
   161 0001:00018C5F   163 0001:00018C6C   164 0001:00018C79   165 0001:00018C86
   166 0001:00018C93   167 0001:00018CA0   169 0001:00018CAD   171 0001:00018CBC
   172 0001:00018D02   174 0001:00018D0C   175 0001:00018D1A   176 0001:00018D25
   177 0001:00018D30   178 0001:00018D3B   179 0001:00018D46   180 0001:00018D61
   181 0001:00018D7C   182 0001:00018D97   183 0001:00018DB3   185 0001:00018DDE
   186 0001:00018DE0   187 0001:00018DE2   188 0001:00018DE4   189 0001:00018DE9
   191 0001:00018DF3   192 0001:00018E11   194 0001:00018E2F   195 0001:00018E4D
   196 0001:00018E6B   197 0001:00018E89   198 0001:00018EA7   199 0001:00018EC5
   200 0001:00018EE2   201 0001:00018EFF   202 0001:00018F1C   203 0001:00018F3A
   204 0001:00018F58   205 0001:00018F76   206 0001:00018F94   207 0001:00018FB2
   208 0001:00018FD0   209 0001:00018FEE   210 0001:0001900C   211 0001:0001901A
   213 0001:00019043   215 0001:00019045   216 0001:00019065   219 0001:00019079
   221 0001:00019097   222 0001:000190B5   223 0001:000190D3   224 0001:000190F1
   225 0001:0001910F   227 0001:0001912D   229 0001:0001913D   231 0001:00019146
   233 0001:0001915B   235 0001:00019163   238 0001:00019178   241 0001:0001918D
   243 0001:000191A2   246 0001:000191B7   248 0001:000191BD   250 0001:000191C6
   252 0001:000191CC   256 0001:000191D2   257 0001:000191E7   258 0001:000191F1
   259 0001:000191F9   261 0001:00019231   263 0001:0001924A   265 0001:00019258
   266 0001:00019276   267 0001:00019294   268 0001:000192B2   269 0001:000192C4
   270 0001:000192EA   271 0001:00019311   272 0001:00019338   273 0001:00019361
   274 0001:00019399   275 0001:000193C5   276 0001:000193F1   277 0001:0001941D
   278 0001:00019449   279 0001:00019470   280 0001:00019497   281 0001:000194C0
   282 0001:00019536   283 0001:0001955F   284 0001:000195D4   285 0001:000195FD
   286 0001:00019643   287 0001:0001964A   288 0001:00019670   289 0001:0001967A
   291 0001:00019684   293 0001:000196A7   295 0001:000196A9   299 0001:000196F3
   300 0001:000196FB   302 0001:0001983F   307 0001:00019D10   308 0001:00019D2A
   309 0001:00019D37   310 0001:00019D45   312 0001:00019D61   314 0001:00019D6D
   316 0001:00019D82   317 0001:00019D9E   319 0001:00019DA0   320 0001:00019DAE
   321 0001:00019DE2   324 0001:00019E28   325 0001:00019E3B   326 0001:00019E75
   328 0001:00019ED4   329 0001:00019EDD   331 0001:00019EF4

Line numbers for CPUCardUI(D:\一卡通前台\东莞一卡通前台\CPU卡管理\CPUCardUI.dpk) segment .text

    61 0001:0001A714

Bound resource files

UCMqhCardDef.DFM
UCMqhCardImp.DFM
USeriPara.DFM
UAMakeAnonCardNo.DFM
UATradeCancel.DFM
UAUNLossOper.DFM
UADestoryApp.DFM
UAAccountQ.DFM
UAConsumeSerial.DFM
UALossOper.DFM
UAChangeCard.DFM
UADestoryOper.DFM
UAReNewApp.DFM
UAReNewOper.DFM
UAChangeCardOper.DFM
UANonCardChange.DFM
UAMachineConsume.DFM
UASetCardMony.DFM
UAappDeal.DFM
UACardSericalQ.DFM
UACardMonyIn.DFM
UAReturnMoney.DFM
CPUCardUI.RES
CPUCardUI.drf


Program entry point at 0001:0001A714
