Archive member included because of file (symbol)

D:/资料/工作资源/ARM7-SDK-2011-05-20/GNU/arm-elf/lib//libc.a(lib_a-fprintf.o)
                              D:/项目文件夹/WiFi_Demo/Release/iso8583.o (fprintf)
D:/资料/工作资源/ARM7-SDK-2011-05-20/GNU/arm-elf/lib//libc.a(lib_a-memcpy.o)
                              D:/项目文件夹/WiFi_Demo/Release/d_upload.o (memcpy)
D:/资料/工作资源/ARM7-SDK-2011-05-20/GNU/arm-elf/lib//libc.a(lib_a-memset.o)
                              D:/项目文件夹/WiFi_Demo/Release/d_upload.o (memset)
D:/资料/工作资源/ARM7-SDK-2011-05-20/GNU/arm-elf/lib//libc.a(lib_a-sprintf.o)
                              D:/项目文件夹/WiFi_Demo/Release/d_upload.o (sprintf)
D:/资料/工作资源/ARM7-SDK-2011-05-20/GNU/arm-elf/lib//libc.a(lib_a-sscanf.o)
                              D:/项目文件夹/WiFi_Demo/Release/iso8583.o (sscanf)
D:/资料/工作资源/ARM7-SDK-2011-05-20/GNU/arm-elf/lib//libc.a(lib_a-strcpy.o)
                              D:/项目文件夹/WiFi_Demo/Release/d_upload.o (strcpy)
D:/资料/工作资源/ARM7-SDK-2011-05-20/GNU/arm-elf/lib//libc.a(lib_a-strlen.o)
                              D:/项目文件夹/WiFi_Demo/Release/d_upload.o (strlen)
D:/资料/工作资源/ARM7-SDK-2011-05-20/GNU/arm-elf/lib//libc.a(lib_a-strncmp.o)
                              D:/项目文件夹/WiFi_Demo/Release/d_upload.o (strncmp)
D:/资料/工作资源/ARM7-SDK-2011-05-20/GNU/arm-elf/lib//libc.a(lib_a-strncpy.o)
                              D:/项目文件夹/WiFi_Demo/Release/mifare.o (strncpy)
D:/资料/工作资源/ARM7-SDK-2011-05-20/GNU/arm-elf/lib//libc.a(lib_a-strtoul.o)
                              D:/项目文件夹/WiFi_Demo/Release/mifare.o (strtoul)
D:/资料/工作资源/ARM7-SDK-2011-05-20/GNU/arm-elf/lib//libc.a(lib_a-vfprintf.o)
                              D:/资料/工作资源/ARM7-SDK-2011-05-20/GNU/arm-elf/lib//libc.a(lib_a-sprintf.o) (_vfprintf_r)
D:/资料/工作资源/ARM7-SDK-2011-05-20/GNU/arm-elf/lib//libc.a(lib_a-vfscanf.o)
                              D:/资料/工作资源/ARM7-SDK-2011-05-20/GNU/arm-elf/lib//libc.a(lib_a-sscanf.o) (__svfscanf_r)
D:/资料/工作资源/ARM7-SDK-2011-05-20/GNU/arm-elf/lib//libc.a(lib_a-wcrtomb.o)
                              D:/资料/工作资源/ARM7-SDK-2011-05-20/GNU/arm-elf/lib//libc.a(lib_a-vfprintf.o) (_wcrtomb_r)
D:/资料/工作资源/ARM7-SDK-2011-05-20/GNU/arm-elf/lib//libc.a(lib_a-wcsrtombs.o)
                              D:/资料/工作资源/ARM7-SDK-2011-05-20/GNU/arm-elf/lib//libc.a(lib_a-vfprintf.o) (_wcsrtombs_r)
D:/资料/工作资源/ARM7-SDK-2011-05-20/GNU/arm-elf/lib//libc.a(lib_a-wctomb_r.o)
                              D:/资料/工作资源/ARM7-SDK-2011-05-20/GNU/arm-elf/lib//libc.a(lib_a-wcrtomb.o) (_wctomb_r)
D:/资料/工作资源/ARM7-SDK-2011-05-20/GNU/arm-elf/lib//libc.a(lib_a-wsetup.o)
                              D:/资料/工作资源/ARM7-SDK-2011-05-20/GNU/arm-elf/lib//libc.a(lib_a-vfprintf.o) (__swsetup)
D:/资料/工作资源/ARM7-SDK-2011-05-20/GNU/arm-elf/lib//libc.a(lib_a-ctype_.o)
                              D:/资料/工作资源/ARM7-SDK-2011-05-20/GNU/arm-elf/lib//libc.a(lib_a-strtoul.o) (__ctype_ptr)
D:/资料/工作资源/ARM7-SDK-2011-05-20/GNU/arm-elf/lib//libc.a(lib_a-dtoa.o)
                              D:/资料/工作资源/ARM7-SDK-2011-05-20/GNU/arm-elf/lib//libc.a(lib_a-vfprintf.o) (_dtoa_r)
D:/资料/工作资源/ARM7-SDK-2011-05-20/GNU/arm-elf/lib//libc.a(lib_a-fflush.o)
                              D:/资料/工作资源/ARM7-SDK-2011-05-20/GNU/arm-elf/lib//libc.a(lib_a-vfprintf.o) (fflush)
D:/资料/工作资源/ARM7-SDK-2011-05-20/GNU/arm-elf/lib//libc.a(lib_a-findfp.o)
                              D:/资料/工作资源/ARM7-SDK-2011-05-20/GNU/arm-elf/lib//libc.a(lib_a-vfprintf.o) (__sinit)
D:/资料/工作资源/ARM7-SDK-2011-05-20/GNU/arm-elf/lib//libc.a(lib_a-fread.o)
                              D:/资料/工作资源/ARM7-SDK-2011-05-20/GNU/arm-elf/lib//libc.a(lib_a-vfscanf.o) (fread)
D:/资料/工作资源/ARM7-SDK-2011-05-20/GNU/arm-elf/lib//libc.a(lib_a-freer.o)
                              D:/资料/工作资源/ARM7-SDK-2011-05-20/GNU/arm-elf/lib//libc.a(lib_a-vfprintf.o) (_free_r)
D:/资料/工作资源/ARM7-SDK-2011-05-20/GNU/arm-elf/lib//libc.a(lib_a-fvwrite.o)
                              D:/资料/工作资源/ARM7-SDK-2011-05-20/GNU/arm-elf/lib//libc.a(lib_a-vfprintf.o) (__sfvwrite_r)
D:/资料/工作资源/ARM7-SDK-2011-05-20/GNU/arm-elf/lib//libc.a(lib_a-fwalk.o)
                              D:/资料/工作资源/ARM7-SDK-2011-05-20/GNU/arm-elf/lib//libc.a(lib_a-fflush.o) (_fwalk)
D:/资料/工作资源/ARM7-SDK-2011-05-20/GNU/arm-elf/lib//libc.a(lib_a-impure.o)
                              D:/资料/工作资源/ARM7-SDK-2011-05-20/GNU/arm-elf/lib//libc.a(lib_a-sprintf.o) (_impure_ptr)
D:/资料/工作资源/ARM7-SDK-2011-05-20/GNU/arm-elf/lib//libc.a(lib_a-iswspace.o)
                              D:/资料/工作资源/ARM7-SDK-2011-05-20/GNU/arm-elf/lib//libc.a(lib_a-vfscanf.o) (iswspace)
D:/资料/工作资源/ARM7-SDK-2011-05-20/GNU/arm-elf/lib//libc.a(lib_a-locale.o)
                              D:/资料/工作资源/ARM7-SDK-2011-05-20/GNU/arm-elf/lib//libc.a(lib_a-vfprintf.o) (localeconv)
D:/资料/工作资源/ARM7-SDK-2011-05-20/GNU/arm-elf/lib//libc.a(lib_a-makebuf.o)
                              D:/资料/工作资源/ARM7-SDK-2011-05-20/GNU/arm-elf/lib//libc.a(lib_a-wsetup.o) (__smakebuf)
D:/资料/工作资源/ARM7-SDK-2011-05-20/GNU/arm-elf/lib//libc.a(lib_a-mallocr.o)
                              D:/资料/工作资源/ARM7-SDK-2011-05-20/GNU/arm-elf/lib//libc.a(lib_a-vfprintf.o) (_malloc_r)
D:/资料/工作资源/ARM7-SDK-2011-05-20/GNU/arm-elf/lib//libc.a(lib_a-mbrtowc.o)
                              D:/资料/工作资源/ARM7-SDK-2011-05-20/GNU/arm-elf/lib//libc.a(lib_a-vfscanf.o) (_mbrtowc_r)
D:/资料/工作资源/ARM7-SDK-2011-05-20/GNU/arm-elf/lib//libc.a(lib_a-mbtowc_r.o)
                              D:/资料/工作资源/ARM7-SDK-2011-05-20/GNU/arm-elf/lib//libc.a(lib_a-mbrtowc.o) (_mbtowc_r)
D:/资料/工作资源/ARM7-SDK-2011-05-20/GNU/arm-elf/lib//libc.a(lib_a-memchr.o)
                              D:/资料/工作资源/ARM7-SDK-2011-05-20/GNU/arm-elf/lib//libc.a(lib_a-vfprintf.o) (memchr)
D:/资料/工作资源/ARM7-SDK-2011-05-20/GNU/arm-elf/lib//libc.a(lib_a-memmove.o)
                              D:/资料/工作资源/ARM7-SDK-2011-05-20/GNU/arm-elf/lib//libc.a(lib_a-fvwrite.o) (memmove)
D:/资料/工作资源/ARM7-SDK-2011-05-20/GNU/arm-elf/lib//libc.a(lib_a-mlock.o)
                              D:/资料/工作资源/ARM7-SDK-2011-05-20/GNU/arm-elf/lib//libc.a(lib_a-freer.o) (__malloc_lock)
D:/资料/工作资源/ARM7-SDK-2011-05-20/GNU/arm-elf/lib//libc.a(lib_a-mprec.o)
                              D:/资料/工作资源/ARM7-SDK-2011-05-20/GNU/arm-elf/lib//libc.a(lib_a-dtoa.o) (_Bfree)
D:/资料/工作资源/ARM7-SDK-2011-05-20/GNU/arm-elf/lib//libc.a(lib_a-reallocr.o)
                              D:/资料/工作资源/ARM7-SDK-2011-05-20/GNU/arm-elf/lib//libc.a(lib_a-fvwrite.o) (_realloc_r)
D:/资料/工作资源/ARM7-SDK-2011-05-20/GNU/arm-elf/lib//libc.a(lib_a-refill.o)
                              D:/资料/工作资源/ARM7-SDK-2011-05-20/GNU/arm-elf/lib//libc.a(lib_a-vfscanf.o) (__srefill_r)
D:/资料/工作资源/ARM7-SDK-2011-05-20/GNU/arm-elf/lib//libc.a(lib_a-s_isinfd.o)
                              D:/资料/工作资源/ARM7-SDK-2011-05-20/GNU/arm-elf/lib//libc.a(lib_a-vfprintf.o) (__isinfd)
D:/资料/工作资源/ARM7-SDK-2011-05-20/GNU/arm-elf/lib//libc.a(lib_a-s_isnand.o)
                              D:/资料/工作资源/ARM7-SDK-2011-05-20/GNU/arm-elf/lib//libc.a(lib_a-vfprintf.o) (__isnand)
D:/资料/工作资源/ARM7-SDK-2011-05-20/GNU/arm-elf/lib//libc.a(lib_a-sccl.o)
                              D:/资料/工作资源/ARM7-SDK-2011-05-20/GNU/arm-elf/lib//libc.a(lib_a-vfscanf.o) (__sccl)
D:/资料/工作资源/ARM7-SDK-2011-05-20/GNU/arm-elf/lib//libc.a(lib_a-sf_nan.o)
                              D:/资料/工作资源/ARM7-SDK-2011-05-20/GNU/arm-elf/lib//libc.a(lib_a-vfscanf.o) (nanf)
D:/资料/工作资源/ARM7-SDK-2011-05-20/GNU/arm-elf/lib//libc.a(lib_a-stdio.o)
                              D:/资料/工作资源/ARM7-SDK-2011-05-20/GNU/arm-elf/lib//libc.a(lib_a-findfp.o) (__sclose)
D:/资料/工作资源/ARM7-SDK-2011-05-20/GNU/arm-elf/lib//libc.a(lib_a-strcmp.o)
                              D:/资料/工作资源/ARM7-SDK-2011-05-20/GNU/arm-elf/lib//libc.a(lib_a-wctomb_r.o) (strcmp)
D:/资料/工作资源/ARM7-SDK-2011-05-20/GNU/arm-elf/lib//libc.a(lib_a-strtod.o)
                              D:/资料/工作资源/ARM7-SDK-2011-05-20/GNU/arm-elf/lib//libc.a(lib_a-vfscanf.o) (_strtod_r)
D:/资料/工作资源/ARM7-SDK-2011-05-20/GNU/arm-elf/lib//libc.a(lib_a-strtol.o)
                              D:/资料/工作资源/ARM7-SDK-2011-05-20/GNU/arm-elf/lib//libc.a(lib_a-vfscanf.o) (_strtol_r)
D:/资料/工作资源/ARM7-SDK-2011-05-20/GNU/arm-elf/lib//libc.a(lib_a-ungetc.o)
                              D:/资料/工作资源/ARM7-SDK-2011-05-20/GNU/arm-elf/lib//libc.a(lib_a-vfscanf.o) (ungetc)
D:/资料/工作资源/ARM7-SDK-2011-05-20/GNU/arm-elf/lib//libc.a(lib_a-callocr.o)
                              D:/资料/工作资源/ARM7-SDK-2011-05-20/GNU/arm-elf/lib//libc.a(lib_a-mprec.o) (_calloc_r)
D:/资料/工作资源/ARM7-SDK-2011-05-20/GNU/arm-elf/lib//libc.a(lib_a-fclose.o)
                              D:/资料/工作资源/ARM7-SDK-2011-05-20/GNU/arm-elf/lib//libc.a(lib_a-findfp.o) (fclose)
D:/资料/工作资源/ARM7-SDK-2011-05-20/GNU/arm-elf/lib//libc.a(lib_a-gdtoa-gethex.o)
                              D:/资料/工作资源/ARM7-SDK-2011-05-20/GNU/arm-elf/lib//libc.a(lib_a-strtod.o) (__gethex)
D:/资料/工作资源/ARM7-SDK-2011-05-20/GNU/arm-elf/lib//libc.a(lib_a-gdtoa-hexnan.o)
                              D:/资料/工作资源/ARM7-SDK-2011-05-20/GNU/arm-elf/lib//libc.a(lib_a-strtod.o) (__hexnan)
D:/资料/工作资源/ARM7-SDK-2011-05-20/HHFiles/lib//libARMPos.a(libARMPos.o)
                              D:/项目文件夹/WiFi_Demo/Release/wifi_con.o (Sys_Delay_MS)
D:/资料/工作资源/ARM7-SDK-2011-05-20/HHFiles/lib//libARMPos.a(call_api.o)
                              D:/项目文件夹/WiFi_Demo/Release/fun.o (Sys_Power_Sleep)
D:/资料/工作资源/ARM7-SDK-2011-05-20/HHFiles/lib//libcard.a(libcard.o)
                              D:/项目文件夹/WiFi_Demo/Release/mifare.o (ICC_select_sock)
D:/资料/工作资源/ARM7-SDK-2011-05-20/HHFiles/lib//libcard.a(cpucard.o)
                              D:/项目文件夹/WiFi_Demo/Release/mifare.o (ICC_cpucard_get_param)
D:/资料/工作资源/ARM7-SDK-2011-05-20/HHFiles/lib//libcontactless.a(iso14443.o)
                              D:/项目文件夹/WiFi_Demo/Release/mifare.o (CardTypeASelect)
D:/资料/工作资源/ARM7-SDK-2011-05-20/HHFiles/lib//libcontactless.a(mifare.o)
                              D:/项目文件夹/WiFi_Demo/Release/mifare.o (CardMFCRead16Bytes)
D:/资料/工作资源/ARM7-SDK-2011-05-20/HHFiles/lib//libcontactless.a(port.o)
                              D:/资料/工作资源/ARM7-SDK-2011-05-20/HHFiles/lib//libcontactless.a(iso14443.o) (RCX_Disable_Int)
D:/资料/工作资源/ARM7-SDK-2011-05-20/HHFiles/lib//libcontactless.a(rcxcomm.o)
                              D:/资料/工作资源/ARM7-SDK-2011-05-20/HHFiles/lib//libcontactless.a(mifare.o) (RCX_Key_Transform)
D:/资料/工作资源/ARM7-SDK-2011-05-20/HHFiles/lib//libcontactless.a(rcxreg.o)
                              D:/资料/工作资源/ARM7-SDK-2011-05-20/HHFiles/lib//libcontactless.a(rcxcomm.o) (RCX_Check_CRCReady)
D:/资料/工作资源/ARM7-SDK-2011-05-20/HHFiles/lib//libext.a(exlib.o)
                              D:/项目文件夹/WiFi_Demo/Release/macset.o (RTC_get_week)
D:/资料/工作资源/ARM7-SDK-2011-05-20/HHFiles/lib//libext.a(exlib_pinyin.o)
                              D:/资料/工作资源/ARM7-SDK-2011-05-20/HHFiles/lib//libext.a(exlib.o) (py_ime)
D:/资料/工作资源/ARM7-SDK-2011-05-20/HHFiles/lib//libWiFi.a(libWiFi.o)
                              D:/项目文件夹/WiFi_Demo/Release/wifi_con.o (CWiFi_SetMSGCallBack)
D:/资料/工作资源/ARM7-SDK-2011-05-20/HHFiles/lib//libWiFi.a(CNaNoWiFi.o)
                              D:/资料/工作资源/ARM7-SDK-2011-05-20/HHFiles/lib//libWiFi.a(libWiFi.o) (CNaNoWiFi_Disconnect_0)
D:/资料/工作资源/ARM7-SDK-2011-05-20/HHFiles/lib//libWiFi.a(Analyse_0.o)
                              D:/资料/工作资源/ARM7-SDK-2011-05-20/HHFiles/lib//libWiFi.a(CNaNoWiFi.o) (Analyse_0_CallBackDisplay)
D:/资料/工作资源/ARM7-SDK-2011-05-20/HHFiles/lib//libWiFi.a(WiFiPubFuncs.o)
                              D:/资料/工作资源/ARM7-SDK-2011-05-20/HHFiles/lib//libWiFi.a(CNaNoWiFi.o) (Myitoa)
D:/资料/工作资源/ARM7-SDK-2011-05-20/HHFiles/lib//libWiFi.a(ARML.o)
                              D:/资料/工作资源/ARM7-SDK-2011-05-20/HHFiles/lib//libWiFi.a(CNaNoWiFi.o) (WiFi_ReadPort)
D:/资料/工作资源/ARM7-SDK-2011-05-20/HHFiles/lib//libWiFi.a(PhyL.o)
                              D:/资料/工作资源/ARM7-SDK-2011-05-20/HHFiles/lib//libWiFi.a(libWiFi.o) (PhyL_Port_Close)
D:/资料/工作资源/ARM7-SDK-2011-05-20/HHFiles/lib//libdb.a(database.o)
                              D:/项目文件夹/WiFi_Demo/Release/vst_db.o (DB_capacity)
D:/资料/工作资源/ARM7-SDK-2011-05-20/HHFiles/lib//libusb.a(D12ci.o)
                              D:/项目文件夹/WiFi_Demo/Release/usbprog.o (D12_Read_Endpoint)
D:/资料/工作资源/ARM7-SDK-2011-05-20/HHFiles/lib//libusb.a(D12Driver.o)
                              D:/项目文件夹/WiFi_Demo/Release/usbprog.o (USB_Suspend)
D:/资料/工作资源/ARM7-SDK-2011-05-20/HHFiles/lib//libusb.a(D12hal.o)
                              D:/资料/工作资源/ARM7-SDK-2011-05-20/HHFiles/lib//libusb.a(D12ci.o) (Output_CMD)
D:/资料/工作资源/ARM7-SDK-2011-05-20/HHFiles/lib//libusb.a(Chap_9.o)
                              D:/资料/工作资源/ARM7-SDK-2011-05-20/HHFiles/lib//libusb.a(D12Driver.o) (Control_Handler)
D:/资料/工作资源/ARM7-SDK-2011-05-20/HHFiles/lib//libusb.a(Descriptor.o)
                              D:/资料/工作资源/ARM7-SDK-2011-05-20/HHFiles/lib//libusb.a(Chap_9.o) (DeviceDescr)
D:/资料/工作资源/ARM7-SDK-2011-05-20/GNU/arm-elf/lib//libgcc.a(_udivsi3.o)
                              D:/资料/工作资源/ARM7-SDK-2011-05-20/GNU/arm-elf/lib//libc.a(lib_a-strtoul.o) (__udivsi3)
D:/资料/工作资源/ARM7-SDK-2011-05-20/GNU/arm-elf/lib//libgcc.a(_divsi3.o)
                              D:/资料/工作资源/ARM7-SDK-2011-05-20/HHFiles/lib//libcard.a(cpucard.o) (__divsi3)
D:/资料/工作资源/ARM7-SDK-2011-05-20/GNU/arm-elf/lib//libgcc.a(_umodsi3.o)
                              D:/资料/工作资源/ARM7-SDK-2011-05-20/GNU/arm-elf/lib//libc.a(lib_a-strtoul.o) (__umodsi3)
D:/资料/工作资源/ARM7-SDK-2011-05-20/GNU/arm-elf/lib//libgcc.a(_modsi3.o)
                              D:/资料/工作资源/ARM7-SDK-2011-05-20/HHFiles/lib//libext.a(exlib.o) (__modsi3)
D:/资料/工作资源/ARM7-SDK-2011-05-20/GNU/arm-elf/lib//libgcc.a(_dvmd_tls.o)
                              D:/资料/工作资源/ARM7-SDK-2011-05-20/GNU/arm-elf/lib//libgcc.a(_udivsi3.o) (__div0)
D:/资料/工作资源/ARM7-SDK-2011-05-20/GNU/arm-elf/lib//libgcc.a(_addsubdf3.o)
                              D:/资料/工作资源/ARM7-SDK-2011-05-20/GNU/arm-elf/lib//libc.a(lib_a-dtoa.o) (__subdf3)
D:/资料/工作资源/ARM7-SDK-2011-05-20/GNU/arm-elf/lib//libgcc.a(_muldivdf3.o)
                              D:/资料/工作资源/ARM7-SDK-2011-05-20/GNU/arm-elf/lib//libc.a(lib_a-dtoa.o) (__muldf3)
D:/资料/工作资源/ARM7-SDK-2011-05-20/GNU/arm-elf/lib//libgcc.a(_cmpdf2.o)
                              D:/资料/工作资源/ARM7-SDK-2011-05-20/GNU/arm-elf/lib//libc.a(lib_a-dtoa.o) (__gtdf2)
D:/资料/工作资源/ARM7-SDK-2011-05-20/GNU/arm-elf/lib//libgcc.a(_fixdfsi.o)
                              D:/资料/工作资源/ARM7-SDK-2011-05-20/GNU/arm-elf/lib//libc.a(lib_a-dtoa.o) (__fixdfsi)
D:/资料/工作资源/ARM7-SDK-2011-05-20/GNU/arm-elf/lib//libgcc.a(_fixunsdfsi.o)
                              D:/资料/工作资源/ARM7-SDK-2011-05-20/GNU/arm-elf/lib//libc.a(lib_a-strtod.o) (__fixunsdfsi)
D:/资料/工作资源/ARM7-SDK-2011-05-20/GNU/arm-elf/lib//libgcc.a(_truncdfsf2.o)
                              D:/资料/工作资源/ARM7-SDK-2011-05-20/GNU/arm-elf/lib//libc.a(lib_a-vfscanf.o) (__truncdfsf2)
D:/资料/工作资源/ARM7-SDK-2011-05-20/GNU/arm-elf/lib//libc.a(lib_a-atol.o)
                              D:/资料/工作资源/ARM7-SDK-2011-05-20/HHFiles/lib//libext.a(exlib.o) (atol)
D:/资料/工作资源/ARM7-SDK-2011-05-20/GNU/arm-elf/lib//libc.a(lib_a-memcmp.o)
                              D:/资料/工作资源/ARM7-SDK-2011-05-20/HHFiles/lib//libcard.a(cpucard.o) (memcmp)
D:/资料/工作资源/ARM7-SDK-2011-05-20/GNU/arm-elf/lib//libc.a(lib_a-strcat.o)
                              D:/资料/工作资源/ARM7-SDK-2011-05-20/HHFiles/lib//libext.a(exlib.o) (strcat)
D:/资料/工作资源/ARM7-SDK-2011-05-20/GNU/arm-elf/lib//libc.a(lib_a-strstr.o)
                              D:/资料/工作资源/ARM7-SDK-2011-05-20/HHFiles/lib//libWiFi.a(CNaNoWiFi.o) (strstr)
D:/资料/工作资源/ARM7-SDK-2011-05-20/GNU/arm-elf/lib//libm.a(lib_a-w_pow.o)
                              D:/资料/工作资源/ARM7-SDK-2011-05-20/HHFiles/lib//libcard.a(cpucard.o) (pow)
D:/资料/工作资源/ARM7-SDK-2011-05-20/GNU/arm-elf/lib//libm.a(lib_a-e_pow.o)
                              D:/资料/工作资源/ARM7-SDK-2011-05-20/GNU/arm-elf/lib//libm.a(lib_a-w_pow.o) (__ieee754_pow)
D:/资料/工作资源/ARM7-SDK-2011-05-20/GNU/arm-elf/lib//libm.a(lib_a-e_sqrt.o)
                              D:/资料/工作资源/ARM7-SDK-2011-05-20/GNU/arm-elf/lib//libm.a(lib_a-e_pow.o) (__ieee754_sqrt)
D:/资料/工作资源/ARM7-SDK-2011-05-20/GNU/arm-elf/lib//libm.a(lib_a-s_fabs.o)
                              D:/资料/工作资源/ARM7-SDK-2011-05-20/GNU/arm-elf/lib//libm.a(lib_a-e_pow.o) (fabs)
D:/资料/工作资源/ARM7-SDK-2011-05-20/GNU/arm-elf/lib//libm.a(lib_a-s_finite.o)
                              D:/资料/工作资源/ARM7-SDK-2011-05-20/GNU/arm-elf/lib//libm.a(lib_a-w_pow.o) (finite)
D:/资料/工作资源/ARM7-SDK-2011-05-20/GNU/arm-elf/lib//libm.a(lib_a-s_lib_ver.o)
                              D:/资料/工作资源/ARM7-SDK-2011-05-20/GNU/arm-elf/lib//libm.a(lib_a-w_pow.o) (__fdlib_version)
D:/资料/工作资源/ARM7-SDK-2011-05-20/GNU/arm-elf/lib//libm.a(lib_a-s_matherr.o)
                              D:/资料/工作资源/ARM7-SDK-2011-05-20/GNU/arm-elf/lib//libm.a(lib_a-w_pow.o) (matherr)
D:/资料/工作资源/ARM7-SDK-2011-05-20/GNU/arm-elf/lib//libm.a(lib_a-s_rint.o)
                              D:/资料/工作资源/ARM7-SDK-2011-05-20/GNU/arm-elf/lib//libm.a(lib_a-w_pow.o) (rint)
D:/资料/工作资源/ARM7-SDK-2011-05-20/GNU/arm-elf/lib//libm.a(lib_a-s_scalbn.o)
                              D:/资料/工作资源/ARM7-SDK-2011-05-20/GNU/arm-elf/lib//libm.a(lib_a-e_pow.o) (scalbn)
D:/资料/工作资源/ARM7-SDK-2011-05-20/GNU/arm-elf/lib//libm.a(lib_a-s_copysign.o)
                              D:/资料/工作资源/ARM7-SDK-2011-05-20/GNU/arm-elf/lib//libm.a(lib_a-s_scalbn.o) (copysign)
D:/资料/工作资源/ARM7-SDK-2011-05-20/GNU/arm-elf/lib//libc.a(lib_a-errno.o)
                              D:/资料/工作资源/ARM7-SDK-2011-05-20/GNU/arm-elf/lib//libm.a(lib_a-w_pow.o) (__errno)

Allocating common symbols
Common symbol       size              file

g_uart_use          0x1               D:/资料/工作资源/ARM7-SDK-2011-05-20/HHFiles/lib//libWiFi.a(PhyL.o)
g_LangID            0x2               D:/资料/工作资源/ARM7-SDK-2011-05-20/HHFiles/lib//libWiFi.a(libWiFi.o)
g_WBuffer           0x5dc             D:/资料/工作资源/ARM7-SDK-2011-05-20/HHFiles/lib//libWiFi.a(CNaNoWiFi.o)
g_simerr            0x2               D:/项目文件夹/WiFi_Demo/Release/WiFi_Demo.o
errno               0x4               D:/项目文件夹/WiFi_Demo/Release/crt0.o
g_RLen              0x4               D:/资料/工作资源/ARM7-SDK-2011-05-20/HHFiles/lib//libWiFi.a(CNaNoWiFi.o)
__hexdig            0x100             D:/资料/工作资源/ARM7-SDK-2011-05-20/GNU/arm-elf/lib//libc.a(lib_a-gdtoa-gethex.o)
bEPPflags           0x4               D:/资料/工作资源/ARM7-SDK-2011-05-20/HHFiles/lib//libusb.a(D12Driver.o)
ControlData         0x18              D:/资料/工作资源/ARM7-SDK-2011-05-20/HHFiles/lib//libusb.a(D12Driver.o)
G_sys_param         0x1c              D:/资料/工作资源/ARM7-SDK-2011-05-20/HHFiles/lib//libext.a(exlib.o)
subkey              0x341             D:/项目文件夹/WiFi_Demo/Release/cal_key.o
g_WiFiMsg           0x4               D:/资料/工作资源/ARM7-SDK-2011-05-20/HHFiles/lib//libWiFi.a(libWiFi.o)
g_RBuffer           0x5dc             D:/资料/工作资源/ARM7-SDK-2011-05-20/HHFiles/lib//libWiFi.a(CNaNoWiFi.o)
IP_result           0x41              D:/项目文件夹/WiFi_Demo/Release/cal_key.o
g_temp              0xa               D:/资料/工作资源/ARM7-SDK-2011-05-20/HHFiles/lib//libWiFi.a(CNaNoWiFi.o)

Memory Configuration

Name             Origin             Length             Attributes
ram              0x0c060000         0x007a0000
*default*        0x00000000         0xffffffff

Linker script and memory map

LOAD D:/项目文件夹/WiFi_Demo/Release/crt0.o
LOAD D:/项目文件夹/WiFi_Demo/Release/WiFi_Demo.o
LOAD D:/项目文件夹/WiFi_Demo/Release/d_upload.o
LOAD D:/项目文件夹/WiFi_Demo/Release/fun.o
LOAD D:/项目文件夹/WiFi_Demo/Release/macset.o
LOAD D:/项目文件夹/WiFi_Demo/Release/vst_db.o
LOAD D:/项目文件夹/WiFi_Demo/Release/wifi_con.o
LOAD D:/项目文件夹/WiFi_Demo/Release/eeprom.o
LOAD D:/项目文件夹/WiFi_Demo/Release/mifare.o
LOAD D:/项目文件夹/WiFi_Demo/Release/cal_key.o
LOAD D:/项目文件夹/WiFi_Demo/Release/usbprog.o
LOAD D:/项目文件夹/WiFi_Demo/Release/db.o
LOAD D:/项目文件夹/WiFi_Demo/Release/iso8583.o
LOAD D:/项目文件夹/WiFi_Demo/Release/cpu_card.o
START GROUP
LOAD D:/资料/工作资源/ARM7-SDK-2011-05-20/GNU/arm-elf/lib//libgcc.a
LOAD D:/资料/工作资源/ARM7-SDK-2011-05-20/GNU/arm-elf/lib//libc.a
LOAD D:/资料/工作资源/ARM7-SDK-2011-05-20/GNU/arm-elf/lib//libm.a
LOAD D:/资料/工作资源/ARM7-SDK-2011-05-20/HHFiles/lib//libARMPos.a
LOAD D:/资料/工作资源/ARM7-SDK-2011-05-20/HHFiles/lib//libcard.a
LOAD D:/资料/工作资源/ARM7-SDK-2011-05-20/HHFiles/lib//libcontactless.a
LOAD D:/资料/工作资源/ARM7-SDK-2011-05-20/HHFiles/lib//libext.a
LOAD D:/资料/工作资源/ARM7-SDK-2011-05-20/HHFiles/lib//libmagcard.a
LOAD D:/资料/工作资源/ARM7-SDK-2011-05-20/HHFiles/lib//libRS232.a
LOAD D:/资料/工作资源/ARM7-SDK-2011-05-20/HHFiles/lib//libWiFi.a
LOAD D:/资料/工作资源/ARM7-SDK-2011-05-20/HHFiles/lib//libdb.a
LOAD D:/资料/工作资源/ARM7-SDK-2011-05-20/HHFiles/lib//libupdown.a
LOAD D:/资料/工作资源/ARM7-SDK-2011-05-20/HHFiles/lib//libusb.a
END GROUP

.text           0x0c060000    0x2d8f4
                0x0c060000                _stext = .
 *(.text)
 .text          0x0c060000      0x328 D:/项目文件夹/WiFi_Demo/Release/crt0.o
                0x0c06016c                _lseek_r
                0x0c060258                _stat_r
                0x0c0602e0                GetBaseOfRO
                0x0c060268                times
                0x0c0600ec                _fstat_r
                0x0c060094                execve
                0x0c06010c                getpid
                0x0c0600c4                _fork_r
                0x0c06018c                _open64_r
                0x0c060114                isatty
                0x0c0601f8                _sbrk_r
                0x0c06019c                _read_r
                0x0c060310                GetBaseOfZI
                0x0c060304                GetEndOfRW
                0x0c060164                lseek
                0x0c0602ec                GetEndOfRO
                0x0c06031c                GetEndOfZI
                0x0c060288                _unlink_r
                0x0c0602d0                write
                0x0c0600dc                fstat
                0x0c06011c                kill
                0x0c0602a0                wait
                0x0c060000                _start
                0x0c060194                read
                0x0c060184                _open_r
                0x0c0602f8                GetBaseOfRW
                0x0c060270                unlink
                0x0c06008c                _close_r
                0x0c0602b8                _wait_r
                0x0c0600ac                fork
                0x0c0601a4                sbrk
                0x0c06014c                _link_r
                0x0c0602d8                _write_r
                0x0c060174                _lseek64_r
                0x0c060248                stat
                0x0c060134                link
                0x0c0600fc                _fstat64_r
                0x0c06017c                open
                0x0c060084                close
 .text          0x0c060328      0x108 D:/项目文件夹/WiFi_Demo/Release/WiFi_Demo.o
                0x0c060328                debugFun
                0x0c060390                main
 .text          0x0c060430      0x5a4 D:/项目文件夹/WiFi_Demo/Release/d_upload.o
                0x0c0608a8                usb_upload_menu
                0x0c0604d4                db_to_str
                0x0c060430                myitoa
                0x0c06055c                usb_upload
 .text          0x0c0609d4      0x844 D:/项目文件夹/WiFi_Demo/Release/fun.o
                0x0c060b78                setAdmPsd_task
                0x0c060a24                adminPsd_init
                0x0c060e38                getAuthorize
                0x0c060da0                discernID_Fudan
                0x0c0609d4                workAttendance_task
                0x0c061020                funSet_task
                0x0c060dec                discernID_task
                0x0c060e9c                dataUpload_task
                0x0c060f3c                vstDatabase_task
                0x0c06111c                main_task
 .text          0x0c061218      0xd10 D:/项目文件夹/WiFi_Demo/Release/macset.o
                0x0c061570                setKeybeeper
                0x0c061830                Set_Auto_Poweroff
                0x0c0619c8                setDate
                0x0c061cec                setTime
                0x0c061378                adminPassword
                0x0c0612b4                input_date_time
                0x0c061218                input_password
                0x0c061690                setBacklight
 .text          0x0c061f28      0x5d8 D:/项目文件夹/WiFi_Demo/Release/vst_db.o
                0x0c0621c0                db_init
                0x0c061f28                check_dbCapcity
                0x0c062474                db_check
                0x0c0623d4                db_init_menu
                0x0c061fbc                check_recordsCnt
                0x0c062088                del_Allrecords
 .text          0x0c062500     0x1130 D:/项目文件夹/WiFi_Demo/Release/wifi_con.o
                0x0c062e94                setGateway
                0x0c063034                setIP
                0x0c0629ac                clearPSK
                0x0c0634c8                disConnect
                0x0c062d60                setServerIP
                0x0c062a20                setPassword
                0x0c0631fc                WiFi_MsgDisplay
                0x0c0632fc                wifiInit_open
                0x0c063470                resetWifi
                0x0c06275c                InputData
                0x0c062c40                setServerPort
                0x0c063104                wifinet_set
                0x0c06286c                connectWifi
                0x0c063240                wifi_init
                0x0c063528                wifi_upload_menu
                0x0c062b30                setServerSSID
                0x0c062f64                setNetMask
                0x0c062500                sendRecords
 .text          0x0c063630      0x170 D:/项目文件夹/WiFi_Demo/Release/eeprom.o
                0x0c063648                charToshort
                0x0c063664                eeprom_write
                0x0c063704                eeprom_read
                0x0c063630                shortTochar
 .text          0x0c0637a0      0xfd0 D:/项目文件夹/WiFi_Demo/Release/mifare.o
                0x0c0637a0                warning_beep
                0x0c064150                discernID
                0x0c063d58                discID_fudan
                0x0c0638a4                calkeyAfromPSAM
                0x0c0637f8                initList
                0x0c064588                readM1Card
                0x0c064320                readAuthorizeCard
                0x0c063cd4                M1_start
 .text          0x0c064770      0x9c8 D:/项目文件夹/WiFi_Demo/Release/cal_key.o
                0x0c064a2c                CODE
                0x0c064770                sub_key
                0x0c064c7c                DECODE
                0x0c064ef8                TriDes
                0x0c0649b8                IP_pro1
                0x0c064e94                des_code
                0x0c0650b0                CalKeyA
                0x0c06495c                IP_pro
                0x0c06501c                CalOffset
 .text          0x0c065138      0xa60 D:/项目文件夹/WiFi_Demo/Release/usbprog.o
                0x0c0652b0                USBDownLongString
                0x0c065138                USBUpLongString
                0x0c0653e4                Usb_Data_Transmit
 .text          0x0c065b98      0x328 D:/项目文件夹/WiFi_Demo/Release/db.o
                0x0c065c1c                Database_Init
                0x0c065b98                count_db_toal
                0x0c065da0                chk_sys_db_format
 .text          0x0c065ec0      0xb10 D:/项目文件夹/WiFi_Demo/Release/iso8583.o
                0x0c0660ec                atd_pack
                0x0c066020                BCD2INT
                0x0c0661e8                iso8583_set
                0x0c066274                iso8583_init
                0x0c065ec0                iso8583_compress
                0x0c066700                iso8583_unpack
                0x0c065ed0                ASC2BCD
                0x0c06665c                iso8583_dump
                0x0c0663fc                iso8583_pack
                0x0c06618c                iso8583_get
                0x0c0663b4                dec2hex
                0x0c0662ec                hex2dec
                0x0c065f70                BCD2ASC
 .text          0x0c0669d0      0x154 D:/项目文件夹/WiFi_Demo/Release/cpu_card.o
                0x0c066a14                myhex2dec
                0x0c0669d0                get_4byte_int
                0x0c0669f4                set_4byte_int
                0x0c066adc                mydec2hex
 .text          0x0c066b24       0x30 D:/资料/工作资源/ARM7-SDK-2011-05-20/GNU/arm-elf/lib//libc.a(lib_a-fprintf.o)
                0x0c066b24                fprintf
 .text          0x0c066b54       0xa8 D:/资料/工作资源/ARM7-SDK-2011-05-20/GNU/arm-elf/lib//libc.a(lib_a-memcpy.o)
                0x0c066b54                memcpy
 .text          0x0c066bfc       0x98 D:/资料/工作资源/ARM7-SDK-2011-05-20/GNU/arm-elf/lib//libc.a(lib_a-memset.o)
                0x0c066bfc                memset
 .text          0x0c066c94       0xdc D:/资料/工作资源/ARM7-SDK-2011-05-20/GNU/arm-elf/lib//libc.a(lib_a-sprintf.o)
                0x0c066d08                _sprintf_r
                0x0c066c94                sprintf
 .text          0x0c066d70      0x108 D:/资料/工作资源/ARM7-SDK-2011-05-20/GNU/arm-elf/lib//libc.a(lib_a-sscanf.o)
                0x0c066df8                sscanf
                0x0c066d78                _sscanf_r
 .text          0x0c066e78       0x9c D:/资料/工作资源/ARM7-SDK-2011-05-20/GNU/arm-elf/lib//libc.a(lib_a-strcpy.o)
                0x0c066e78                strcpy
 .text          0x0c066f14       0x68 D:/资料/工作资源/ARM7-SDK-2011-05-20/GNU/arm-elf/lib//libc.a(lib_a-strlen.o)
                0x0c066f14                strlen
 .text          0x0c066f7c      0x144 D:/资料/工作资源/ARM7-SDK-2011-05-20/GNU/arm-elf/lib//libc.a(lib_a-strncmp.o)
                0x0c066f7c                strncmp
 .text          0x0c0670c0      0x104 D:/资料/工作资源/ARM7-SDK-2011-05-20/GNU/arm-elf/lib//libc.a(lib_a-strncpy.o)
                0x0c0670c0                strncpy
 .text          0x0c0671c4      0x1f4 D:/资料/工作资源/ARM7-SDK-2011-05-20/GNU/arm-elf/lib//libc.a(lib_a-strtoul.o)
                0x0c06738c                strtoul
                0x0c0671c4                _strtoul_r
 .text          0x0c0673b8     0x2080 D:/资料/工作资源/ARM7-SDK-2011-05-20/GNU/arm-elf/lib//libc.a(lib_a-vfprintf.o)
                0x0c0673e8                _vfprintf_r
                0x0c06940c                vfprintf
 .text          0x0c069438     0x1564 D:/资料/工作资源/ARM7-SDK-2011-05-20/GNU/arm-elf/lib//libc.a(lib_a-vfscanf.o)
                0x0c06a8d8                __svfscanf
                0x0c06a904                _vfscanf_r
                0x0c06a948                vfscanf
                0x0c069438                __svfscanf_r
 .text          0x0c06a99c       0x74 D:/资料/工作资源/ARM7-SDK-2011-05-20/GNU/arm-elf/lib//libc.a(lib_a-wcrtomb.o)
                0x0c06a99c                _wcrtomb_r
                0x0c06a9e4                wcrtomb
 .text          0x0c06aa10      0x180 D:/资料/工作资源/ARM7-SDK-2011-05-20/GNU/arm-elf/lib//libc.a(lib_a-wcsrtombs.o)
                0x0c06aa10                _wcsrtombs_r
                0x0c06ab50                wcsrtombs
 .text          0x0c06ab90      0x420 D:/资料/工作资源/ARM7-SDK-2011-05-20/GNU/arm-elf/lib//libc.a(lib_a-wctomb_r.o)
                0x0c06ab90                _wctomb_r
 .text          0x0c06afb0      0x110 D:/资料/工作资源/ARM7-SDK-2011-05-20/GNU/arm-elf/lib//libc.a(lib_a-wsetup.o)
                0x0c06afb0                __swsetup
 .text          0x0c06b0c0        0x0 D:/资料/工作资源/ARM7-SDK-2011-05-20/GNU/arm-elf/lib//libc.a(lib_a-ctype_.o)
 .text          0x0c06b0c0     0x16f4 D:/资料/工作资源/ARM7-SDK-2011-05-20/GNU/arm-elf/lib//libc.a(lib_a-dtoa.o)
                0x0c06b2e8                _dtoa_r
 .text          0x0c06c7b4      0x1ac D:/资料/工作资源/ARM7-SDK-2011-05-20/GNU/arm-elf/lib//libc.a(lib_a-fflush.o)
                0x0c06c7b4                fflush
 .text          0x0c06c960      0x26c D:/资料/工作资源/ARM7-SDK-2011-05-20/GNU/arm-elf/lib//libc.a(lib_a-findfp.o)
                0x0c06c9cc                __sinit
                0x0c06caa4                __sfmoreglue
                0x0c06ca94                _cleanup
                0x0c06ca88                _cleanup_r
                0x0c06ca70                __fp_lock_all
                0x0c06c9bc                __sfp_lock_acquire
                0x0c06caf4                __sfp
                0x0c06c9c8                __sinit_lock_release
                0x0c06ca58                __fp_unlock_all
                0x0c06c9c0                __sfp_lock_release
                0x0c06c9c4                __sinit_lock_acquire
 .text          0x0c06cbcc      0x214 D:/资料/工作资源/ARM7-SDK-2011-05-20/GNU/arm-elf/lib//libc.a(lib_a-fread.o)
                0x0c06cda0                fread
                0x0c06cbcc                _fread_r
 .text          0x0c06cde0      0x3a4 D:/资料/工作资源/ARM7-SDK-2011-05-20/GNU/arm-elf/lib//libc.a(lib_a-freer.o)
                0x0c06ced8                _free_r
                0x0c06cde0                _malloc_trim_r
 .text          0x0c06d184      0x44c D:/资料/工作资源/ARM7-SDK-2011-05-20/GNU/arm-elf/lib//libc.a(lib_a-fvwrite.o)
                0x0c06d184                __sfvwrite_r
 .text          0x0c06d5d0      0x10c D:/资料/工作资源/ARM7-SDK-2011-05-20/GNU/arm-elf/lib//libc.a(lib_a-fwalk.o)
                0x0c06d658                _fwalk
                0x0c06d5d0                _fwalk_reent
 .text          0x0c06d6dc        0x0 D:/资料/工作资源/ARM7-SDK-2011-05-20/GNU/arm-elf/lib//libc.a(lib_a-impure.o)
 .text          0x0c06d6dc       0x20 D:/资料/工作资源/ARM7-SDK-2011-05-20/GNU/arm-elf/lib//libc.a(lib_a-iswspace.o)
                0x0c06d6dc                iswspace
 .text          0x0c06d6fc       0xa8 D:/资料/工作资源/ARM7-SDK-2011-05-20/GNU/arm-elf/lib//libc.a(lib_a-locale.o)
                0x0c06d728                _setlocale_r
                0x0c06d6fc                __locale_charset
                0x0c06d70c                _localeconv_r
                0x0c06d788                setlocale
                0x0c06d718                localeconv
 .text          0x0c06d7a4      0x178 D:/资料/工作资源/ARM7-SDK-2011-05-20/GNU/arm-elf/lib//libc.a(lib_a-makebuf.o)
                0x0c06d7a4                __smakebuf
 .text          0x0c06d91c      0x798 D:/资料/工作资源/ARM7-SDK-2011-05-20/GNU/arm-elf/lib//libc.a(lib_a-mallocr.o)
                0x0c06d91c                _malloc_r
 .text          0x0c06e0b4       0x98 D:/资料/工作资源/ARM7-SDK-2011-05-20/GNU/arm-elf/lib//libc.a(lib_a-mbrtowc.o)
                0x0c06e10c                mbrtowc
                0x0c06e0b4                _mbrtowc_r
 .text          0x0c06e14c       0x50 D:/资料/工作资源/ARM7-SDK-2011-05-20/GNU/arm-elf/lib//libc.a(lib_a-mbtowc_r.o)
                0x0c06e14c                _mbtowc_r
 .text          0x0c06e19c      0x10c D:/资料/工作资源/ARM7-SDK-2011-05-20/GNU/arm-elf/lib//libc.a(lib_a-memchr.o)
                0x0c06e19c                memchr
 .text          0x0c06e2a8       0xf4 D:/资料/工作资源/ARM7-SDK-2011-05-20/GNU/arm-elf/lib//libc.a(lib_a-memmove.o)
                0x0c06e2a8                memmove
 .text          0x0c06e39c        0x8 D:/资料/工作资源/ARM7-SDK-2011-05-20/GNU/arm-elf/lib//libc.a(lib_a-mlock.o)
                0x0c06e3a0                __malloc_unlock
                0x0c06e39c                __malloc_lock
 .text          0x0c06e3a4      0xcf4 D:/资料/工作资源/ARM7-SDK-2011-05-20/GNU/arm-elf/lib//libc.a(lib_a-mprec.o)
                0x0c06e6ac                _mprec_log10
                0x0c06e758                __any_on
                0x0c06e7f4                _Balloc
                0x0c06e62c                __ratio
                0x0c06edd0                __i2b
                0x0c06e56c                __b2d
                0x0c06efb8                __s2b
                0x0c06e4ac                __mcmp
                0x0c06e3c0                __hi0bits
                0x0c06eec4                __pow5mult
                0x0c06eaf4                __lshift
                0x0c06ebfc                __multiply
                0x0c06e884                __d2b
                0x0c06e6fc                __copybits
                0x0c06e50c                __ulp
                0x0c06e9b0                __mdiff
                0x0c06e418                __lo0bits
                0x0c06edf0                __multadd
                0x0c06e3a4                _Bfree
 .text          0x0c06f098      0x500 D:/资料/工作资源/ARM7-SDK-2011-05-20/GNU/arm-elf/lib//libc.a(lib_a-reallocr.o)
                0x0c06f098                _realloc_r
 .text          0x0c06f598      0x1b4 D:/资料/工作资源/ARM7-SDK-2011-05-20/GNU/arm-elf/lib//libc.a(lib_a-refill.o)
                0x0c06f5b4                __srefill_r
 .text          0x0c06f74c       0x3c D:/资料/工作资源/ARM7-SDK-2011-05-20/GNU/arm-elf/lib//libc.a(lib_a-s_isinfd.o)
                0x0c06f74c                __isinfd
 .text          0x0c06f788       0x30 D:/资料/工作资源/ARM7-SDK-2011-05-20/GNU/arm-elf/lib//libc.a(lib_a-s_isnand.o)
                0x0c06f788                __isnand
 .text          0x0c06f7b8       0xc8 D:/资料/工作资源/ARM7-SDK-2011-05-20/GNU/arm-elf/lib//libc.a(lib_a-sccl.o)
                0x0c06f7b8                __sccl
 .text          0x0c06f880        0xc D:/资料/工作资源/ARM7-SDK-2011-05-20/GNU/arm-elf/lib//libc.a(lib_a-sf_nan.o)
                0x0c06f880                nanf
 .text          0x0c06f88c      0x100 D:/资料/工作资源/ARM7-SDK-2011-05-20/GNU/arm-elf/lib//libc.a(lib_a-stdio.o)
                0x0c06f8a0                __sseek
                0x0c06f948                __sread
                0x0c06f88c                __sclose
                0x0c06f8e8                __swrite
 .text          0x0c06f98c       0xe8 D:/资料/工作资源/ARM7-SDK-2011-05-20/GNU/arm-elf/lib//libc.a(lib_a-strcmp.o)
                0x0c06f98c                strcmp
 .text          0x0c06fa74     0x15e0 D:/资料/工作资源/ARM7-SDK-2011-05-20/GNU/arm-elf/lib//libc.a(lib_a-strtod.o)
                0x0c06fabc                _strtod_r
                0x0c071038                strtod
                0x0c070fe8                strtof
 .text          0x0c071054      0x1f0 D:/资料/工作资源/ARM7-SDK-2011-05-20/GNU/arm-elf/lib//libc.a(lib_a-strtol.o)
                0x0c071218                strtol
                0x0c071054                _strtol_r
 .text          0x0c071244      0x248 D:/资料/工作资源/ARM7-SDK-2011-05-20/GNU/arm-elf/lib//libc.a(lib_a-ungetc.o)
                0x0c071470                ungetc
                0x0c071244                __submore
                0x0c0712f8                _ungetc_r
 .text          0x0c07148c       0xa0 D:/资料/工作资源/ARM7-SDK-2011-05-20/GNU/arm-elf/lib//libc.a(lib_a-callocr.o)
                0x0c07148c                _calloc_r
 .text          0x0c07152c      0x10c D:/资料/工作资源/ARM7-SDK-2011-05-20/GNU/arm-elf/lib//libc.a(lib_a-fclose.o)
                0x0c07152c                _fclose_r
                0x0c071624                fclose
 .text          0x0c071638      0x84c D:/资料/工作资源/ARM7-SDK-2011-05-20/GNU/arm-elf/lib//libc.a(lib_a-gdtoa-gethex.o)
                0x0c07166c                __hexdig_init
                0x0c071780                __gethex
 .text          0x0c071e84      0x270 D:/资料/工作资源/ARM7-SDK-2011-05-20/GNU/arm-elf/lib//libc.a(lib_a-gdtoa-hexnan.o)
                0x0c071eb8                __hexnan
 .text          0x0c0720f4       0xa0 D:/资料/工作资源/ARM7-SDK-2011-05-20/HHFiles/lib//libARMPos.a(libARMPos.o)
                0x0c072150                Sys_Delay_MS
                0x0c072140                Sys_Delay_US
                0x0c072118                Sys_Delay_NS
                0x0c0720f4                SYS_Restart_Code
                0x0c07217c                Sys_Delay_Sec
 .text          0x0c072194     0x14a0 D:/资料/工作资源/ARM7-SDK-2011-05-20/HHFiles/lib//libARMPos.a(call_api.o)
                0x0c07277c                UART_Modem_Ctrl
                0x0c0726a4                UART_Stat
                0x0c0722fc                KEY_Beep_Mask_Read
                0x0c0724dc                Disp_Get_Pixel
                0x0c0728b4                RTC_Alarm_Control
                0x0c072404                Disp_Init
                0x0c07271c                UART2_Flush_FIFO
                0x0c072fa4                Sys_Get_SDRAM_Size
                0x0c072464                Disp_Goto_XY
                0x0c072a1c                EEPROM_Write_Byte
                0x0c0730dc                SYS_NO_OP35
                0x0c072e54                Disp_Get_Color_Setting
                0x0c0721f4                Sys_Int_Disable
                0x0c0723ec                Disp_Get_Select_Color
                0x0c072cd4                Sys_Init_EXINT
                0x0c072d34                Nand_Correct_Data
                0x0c072ecc                SYS_NO_OP16
                0x0c0727ac                Sys_Timer_Read
                0x0c07235c                Is_EL_On
                0x0c0725e4                Disp_Get_Contrast
                0x0c0728fc                SIO_Exchange
                0x0c0728e4                SIO_Init
                0x0c072af4                Nand_Is_Bad_Block
                0x0c0728cc                RTC_Alarm_Status
                0x0c0727f4                RTC_Set_Date
                0x0c0729d4                I2C_ACK_Control
                0x0c072fec                Disp_Put_Bmp_New
                0x0c07244c                Disp_Set_Font_Attrib
                0x0c072c44                Sys_BC_Init
                0x0c072f5c                KEY_Set_CallBack
                0x0c072fd4                EEPROM_Set_Type
                0x0c072dc4                SYS_AUX_Sock_Select
                0x0c072e24                Sys_AUX_IO_Control
                0x0c072c5c                Sys_BC_Laser_Enable
                0x0c07262c                UART_Init
                0x0c07268c                UART_Flush_FIFO
                0x0c072a64                Sys_Delay_Sec1
                0x0c072674                UART_Send_Str
                0x0c072194                Sys_Power_Sleep
                0x0c0724c4                Disp_Clr_Win
                0x0c072e9c                User_Timer_End
                0x0c072b84                SYS_Read_Vol_ADC
                0x0c072a7c                Flash_Get_Size
                0x0c0722cc                KEY_EL_Mask_Set
                0x0c072284                KEY_Read_Up
                0x0c072f44                User_Param_Read
                0x0c072cec                Sys_EXINT_Output
                0x0c072f2c                User_Param_Write
                0x0c072c2c                Sys_Motor_Enable
                0x0c072ee4                SYS_NO_OP17
                0x0c072f74                Sys_Network_Power_Control
                0x0c072e3c                Sys_Card_INT_Control
                0x0c072d1c                Nand_Calculate_ECC
                0x0c072704                UART2_Send_Str
                0x0c072644                UART_Rev_Char
                0x0c072614                Disp_Dec_Contrast
                0x0c07301c                EEPROM_Read_Con
                0x0c072794                Sys_Timer_Start
                0x0c07238c                EL_Get_Timeout
                0x0c072e0c                Sys_Gprs_Power_Control
                0x0c0726bc                UART2_Init
                0x0c0730c4                SYS_NO_OP34
                0x0c072314                KEY_EL_Mask_Read
                0x0c072dac                SYS_LED_Control
                0x0c07241c                Disp_Write_Char
                0x0c072bb4                SYS_Read_Current
                0x0c072554                Disp_Put_Bmp_Raw
                0x0c0729bc                I2C_Send_Char
                0x0c072aac                FLASH_Erase_One_Block
                0x0c072944                I2C_Init
                0x0c0724f4                Disp_Put_Pixel
                0x0c0727dc                WatchDog_Set
                0x0c0721c4                Sys_Auto_Poweroff_Read
                0x0c072d4c                Disp_Write_16x16_Chr
                0x0c07265c                UART_Send_Char
                0x0c0729a4                I2C_Recv_Char
                0x0c072ddc                Sys_Get_POS_Type
                0x0c072be4                Sys_Read_RARC
                0x0c0725b4                Disp_7_SEG_Time
                0x0c0722e4                KEY_Flush_FIFO
                0x0c07247c                Disp_Write_Str
                0x0c073094                Sys_U2P2_Power_Control
                0x0c072884                RTC_Set_Alarm
                0x0c072254                KEY_Init
                0x0c072914                SIO_Aux_Pin_Control
                0x0c07232c                KEY_Get_Status
                0x0c07286c                RTC_Get_DateTime
                0x0c072ac4                FLASH_Write_Record
                0x0c07253c                Disp_Put_Bmp
                0x0c072224                SYS_Msg_Wait
                0x0c0721dc                BATT_Check_Level
                0x0c072df4                Sys_AUX_OUT_Set
                0x0c07307c                Sys_U2P1_Power_Control
                0x0c072c74                Sys_Get_Lib_Version
                0x0c07256c                Disp_Icon_Set
                0x0c072b3c                Nand_Write_OnePage
                0x0c073064                Disp_Get_Magnification
                0x0c072d7c                SYS_Msg_Wait_Ext
                0x0c072bcc                Sys_Read_RAAC
                0x0c072734                UART2_Stat
                0x0c072974                I2C_Start_Recv
                0x0c072d04                Sys_EXINT_Read
                0x0c072fbc                Sys_Get_Version
                0x0c072a4c                Sys_Delay_MS1
                0x0c07229c                KEY_Read_Down
                0x0c0729ec                EEPROM_Init
                0x0c072b9c                SYS_Read_Vol_IC
                0x0c073004                Sys_Magcard_Power_Control
                0x0c072b24                Nand_Read_Random
                0x0c0725fc                Disp_Inc_Contrast
                0x0c0723d4                Disp_Set_Color
                0x0c07280c                RTC_Set_Time
                0x0c07283c                RTC_Get_Date
                0x0c0721ac                Sys_Auto_Poweroff_Set
                0x0c0730f4                SYS_NO_OP36
                0x0c073034                EEPROM_Write_Page
                0x0c0724ac                Disp_Clear
                0x0c07292c                SIO_Aux_Power_Control
                0x0c0730ac                SYS_NO_OP33
                0x0c072b54                Nand_Erase_OneBlock
                0x0c07223c                SYS_Msg_Mask_Set
                0x0c072a04                EEPROM_Read_Byte
                0x0c072a34                Sys_Delay_US1
                0x0c072adc                Nand_Read_ID
                0x0c072b6c                SYS_Read_Vol
                0x0c072ca4                Dis_Key_Int
                0x0c0725cc                Disp_Set_Contrast
                0x0c07289c                RTC_Get_Alarm
                0x0c07250c                Disp_Put_Pixel_Col
                0x0c072344                EL_Set
                0x0c0723bc                Is_Charger_On
                0x0c0722b4                KEY_Beep_Mask_Set
                0x0c072524                Disp_Set_Bmp_Mode
                0x0c072e6c                User_Timer_Get
                0x0c072f14                SYS_NO_OP19
                0x0c072434                Disp_Write_Char_Col
                0x0c072bfc                Sys_Power_5V_Enable
                0x0c072584                Disp_Icon_Battery_Time_Set
                0x0c072efc                SYS_NO_OP18
                0x0c07259c                Disp_Icon_Battery_Time_Refresh
                0x0c072cbc                En_Key_Int
                0x0c07304c                Disp_Set_Magnification
                0x0c07295c                I2C_Start_Send
                0x0c07298c                I2C_Stop
                0x0c072824                RTC_Set_DateTime
                0x0c0726ec                UART2_Send_Char
                0x0c072764                UART_Printf
                0x0c07226c                KEY_Read
                0x0c072d94                Sys_BC_Init_EXT
                0x0c072d64                FLASH_Get_Sec_ID
                0x0c072c14                Sys_Power_3V_Enable
                0x0c072b0c                Nand_Read_Pages
                0x0c07274c                UART_Send_Term
                0x0c072374                EL_Set_Timeout
                0x0c072854                RTC_Get_Time
                0x0c072f8c                Sys_Audio_Power_Control
                0x0c0727c4                Sys_Timer_CallBack
                0x0c072c8c                SYS_Query
                0x0c072e84                User_Timer_Start
                0x0c0726d4                UART2_Rev_Char
                0x0c072494                Disp_Write_Str_Col
                0x0c07220c                Sys_Int_Enable
                0x0c072a94                FLASH_Erase_One_Sector
                0x0c0723a4                Beep_Sound
                0x0c072eb4                User_Timer_Read
 .text          0x0c073634     0x1424 D:/资料/工作资源/ARM7-SDK-2011-05-20/HHFiles/lib//libcard.a(libcard.o)
                0x0c0738d4                IC_CARD_GET_URR
                0x0c0738a8                IC_CARD_GET_MSR
                0x0c073bd8                set_C4
                0x0c0741cc                Receive_I2C_Data
                0x0c073824                IC_CARD_GET_UCR1
                0x0c073bc8                reset_CLK
                0x0c073a2c                card_stop_level_low
                0x0c074700                is_card_exist
                0x0c07392c                IC_CARD_GET_HSR
                0x0c073650                IC_card_set_C6
                0x0c073d40                get_IO
                0x0c073e0c                ICC_access_CLK
                0x0c073dd4                set_IO
                0x0c073db4                reset_IO
                0x0c07398c                set_PSC_32
                0x0c0737a0                IC_CARD_GET_PDR
                0x0c073ce0                get_C8
                0x0c073900                IC_CARD_GET_USR
                0x0c0745d4                ICC_memcard_atr
                0x0c07387c                IC_CARD_GET_TOC
                0x0c073748                IC_CARD_GET_CSR
                0x0c073ed0                close_8007_interrupt
                0x0c073ed8                open_8007_interrupt
                0x0c073684                IC_Card_Clk_Open
                0x0c073e84                ICC_card_activity
                0x0c073634                ICC_Enalble_C6
                0x0c073c0c                reset_C4
                0x0c073b88                reset_RST
                0x0c073eb8                Parse_Addr
                0x0c074304                Start_I2C_IO
                0x0c074030                Send_I2C_Data
                0x0c0747e4                ICC_select_sock
                0x0c073a60                stop_card_clk
                0x0c0740b0                Send_I2C_NOACK
                0x0c0744d0                ACK_Polling_I2C
                0x0c0737f8                IC_CARD_GET_GTR
                0x0c073e6c                ICC_get_curr_sock
                0x0c073df4                ICC_memcard_pin_session
                0x0c073850                IC_CARD_GET_PCR
                0x0c0737cc                IC_CARD_GET_UCR2
                0x0c073774                IC_CARD_GET_CCR
                0x0c073a98                start_card_clk
                0x0c073d10                set_recv_mode
                0x0c074358                ICC_memcard_IIC_session
                0x0c073e34                ICC_CPU_access_speed
                0x0c07459c                start_card
                0x0c0740f8                Send_I2C_ACK
                0x0c073fac                Send_I2C_Data_LSB
                0x0c073d80                set_send_mode
                0x0c073c74                reset_C6
                0x0c073f38                ICC_sock_check
                0x0c073734                IC_Card_Clk_Check
                0x0c074260                Receive_I2C_ACK
                0x0c073acc                set_card_vcc
                0x0c0742b0                Stop_I2C_IO
                0x0c07413c                Receive_I2C_Data_LSB
                0x0c074568                stop_card
                0x0c073cb0                reset_C8
                0x0c073c3c                get_C4
                0x0c073b54                set_RST
                0x0c073ee0                clear_8007_interrupt
                0x0c073958                set_PSC_31
                0x0c0739f4                card_stop_level_high
                0x0c073c7c                set_C8
                0x0c0748a8                ICC_interface_power
                0x0c0739c4                check_8007_type
                0x0c073c6c                set_C6
                0x0c0747bc                ICC_deactivate_current_sock
                0x0c073bb8                set_CLK
                0x0c0736e8                IC_Card_Clk_Close
 .text          0x0c074a58     0x42ac D:/资料/工作资源/ARM7-SDK-2011-05-20/HHFiles/lib//libcard.a(cpucard.o)
                0x0c075d60                ICC_T0_TPDU
                0x0c0752bc                PBOC_atr_check
                0x0c0752e0                wait_for_CLKSW_reset
                0x0c07691c                ICC_T1_frame
                0x0c074cb4                PBOC_EMV_atr_check
                0x0c077254                ICC_T1_APDU_Exchange
                0x0c075330                wait_for_CLKSW_set
                0x0c074c38                ICC_cpucard_set_param
                0x0c077158                ICC_T1_Set_IFSD
                0x0c074c30                EMV_ISO_atr_check
                0x0c077b98                ICC_cpucard_ATR
                0x0c074c8c                ICC_cpucard_get_param
                0x0c0753e8                ICC_cpucard_PTS
                0x0c075380                wait_for_CRED
 .text          0x0c078d04     0x28e8 D:/资料/工作资源/ARM7-SDK-2011-05-20/HHFiles/lib//libcontactless.a(iso14443.o)
                0x0c07aa1c                ISO14443_Request_TypeB
                0x0c079ae8                ISO14443_Slot_Marker_TypeB
                0x0c079bb0                CardTypeBSlotMarker
                0x0c0795fc                CardTypeBExchangeBlock
                0x0c07a80c                CardTypeAExchangeBlock
                0x0c07acb8                ISO14443_RATS_TypeA_Ex
                0x0c079144                ISO14443_Check_Mode
                0x0c079aa4                CardTypeBAttrib
                0x0c079694                ISO14443_Deselect_TypeB
                0x0c078f78                ISO14443_Param_Set_Rate
                0x0c07b5a4                CardTypeAAnticoll
                0x0c07af2c                CardTypeARATS
                0x0c07abb0                ISO14443_PPS_TypeA
                0x0c07b0fc                ISO14443_Request_TypeA
                0x0c079954                CardTypeBAttrib_Ex
                0x0c07b328                ISO14443_AntiCollision_TypeA_Basic
                0x0c07a094                ISO14443_LinkLayer_Exchange
                0x0c078dbc                ISO14443_Param_Analyse_TypeA
                0x0c07b060                CardTypeASelect
                0x0c078f80                CardGetParam
                0x0c07b28c                ISO14443_Halt_TypeA
                0x0c079770                ISO14443_Halt_TypeB
                0x0c07b308                CardTypeAHalt
                0x0c07b240                CardTypeARequest
                0x0c079174                RCX_TransCeive_14443B
                0x0c07a98c                ISO14443_Deselect
                0x0c07aed0                CardTypeARATS_Ex
                0x0c079bf4                RCX_TransCeive_14443A
                0x0c078d10                ISO14443_Param_Init_TypeA
                0x0c07af8c                ISO14443_Select_TypeA_Basic
                0x0c07a9e4                CardTypeADeselect
                0x0c078d04                ISO14443_ParamGet
                0x0c07ab44                CardTypeBRequest
                0x0c079808                CardTypeBHalt
                0x0c07af58                ISO14443_RATS_TypeA
                0x0c078fbc                ISO14443_Param_Analyse_TypeB
                0x0c07a8dc                ISO14443_Deselect_TypeA
                0x0c07ac8c                CardTypeAPPS
                0x0c07a5e0                ISO14443_APDU_Exchange_Ex
                0x0c07a72c                ISO14443_APDU_Exchange
                0x0c0799cc                ISO14443_Attrib_TypeB
                0x0c079830                ISO14443_Attrib_TypeB_Ex
                0x0c079738                CardTypeBDeselect
 .text          0x0c07b5ec     0x10fc D:/资料/工作资源/ARM7-SDK-2011-05-20/HHFiles/lib//libcontactless.a(mifare.o)
                0x0c07c12c                CardAccessMultiBlocks
                0x0c07bd5c                FM11RF_Read4Bytes
                0x0c07c56c                Mf500KeyWriteToEeprom
                0x0c07b61c                CardMFCValueDebit
                0x0c07bf50                CardMFCAuthKeyE2
                0x0c07be5c                CardMFCRead16Bytes
                0x0c07c6b4                CardKX12AuthKey
                0x0c07c428                CardAccess
                0x0c07c328                CardValue
                0x0c07b79c                CardMFCValueWithTransfer
                0x0c07bb44                CardMFCWrite4Bytes
                0x0c07bfe0                CardTrailerWrite
                0x0c07bc0c                CardMFCWrite16Bytes
                0x0c07b9b4                FM11RF_Write4Bytes
                0x0c07c618                CardMFCAuthKey
 .text          0x0c07c6e8      0x368 D:/资料/工作资源/ARM7-SDK-2011-05-20/HHFiles/lib//libcontactless.a(port.o)
                0x0c07c8c8                RCX_Power_Off
                0x0c07c828                RCX_ReadReg_Same
                0x0c07c958                RCX_Reset
                0x0c07c6ec                RCX_Enable_Int
                0x0c07c7c4                RCX_ReadReg
                0x0c07c6f0                RCX_WriteFIFO
                0x0c07c6e8                RCX_Disable_Int
                0x0c07c830                RCX_ReadFIFO
                0x0c07c7b8                RCX_WriteReg_Same
                0x0c07c778                RCX_WriteReg
                0x0c07c90c                RCX_Power_On
 .text          0x0c07ca50     0x12b8 D:/资料/工作资源/ARM7-SDK-2011-05-20/HHFiles/lib//libcontactless.a(rcxcomm.o)
                0x0c07d3a8                RCX_Reg_Init_ICODE1STD
                0x0c07d170                RCX_ReadE2
                0x0c07caa0                RCX_Adjust_RxGain
                0x0c07d5e0                RCX_Reg_Init_15693STD
                0x0c07d830                RCX_Reg_Init_14443B_MOT
                0x0c07dcd4                RCX_Read_Product_Serial
                0x0c07d4d0                RCX_Reg_Init_15693Fast
                0x0c07cda4                RCX_CalcCRC
                0x0c07d6fc                RCX_Reg_Init_14443B_ASK
                0x0c07d138                RCX_Adjust_14443A
                0x0c07ca50                RCX_Key_Transform
                0x0c07cf70                RCX_WriteE2
                0x0c07cb0c                RCX_Authent2
                0x0c07cb94                RCX_Authent1
                0x0c07d280                RCX_Reg_Init_ICODE1Fast
                0x0c07da98                RCX_Reg_Init_14443A
                0x0c07d24c                RCX_Read_Product_Type
                0x0c07ccf8                RCX_LoadKeyE2
                0x0c07caec                RCX_Close
                0x0c07dbc0                RCX_Init
                0x0c07d964                RCX_Reg_Init_14443B_STD
                0x0c07cc60                RCX_LoadKey
 .text          0x0c07dd08      0x524 D:/资料/工作资源/ARM7-SDK-2011-05-20/HHFiles/lib//libcontactless.a(rcxreg.o)
                0x0c07df7c                RCX_RF_Close
                0x0c07dd60                RCX_Get_RxLastBit
                0x0c07e13c                RCX_PowerDown
                0x0c07e104                RCX_Clear_Crypto1
                0x0c07e08c                RCX_Stop_Timer
                0x0c07dd34                RCX_Check_WriteE2
                0x0c07de64                RCX_Set_TSPMSB
                0x0c07ddf4                RCX_Check_IRQ
                0x0c07dffc                RCX_Set_TxLastBits
                0x0c07e1c4                RCX_RF_Reset
                0x0c07dd08                RCX_Check_CRCReady
                0x0c07e0c8                RCX_Start_Timer
                0x0c07df44                RCX_SendOnePulse_Enable
                0x0c07de9c                RCX_Clear_100ASK
                0x0c07df0c                RCX_SendOnePulse_Disable
                0x0c07ded4                RCX_Set_100ASK
                0x0c07dd90                RCX_Check_ErrorFlag
                0x0c07de2c                RCX_Clear_TSPMSB
                0x0c07e040                RCX_Set_RX_AutoPD
                0x0c07ddc8                RCX_Check_Crypto1
                0x0c07e174                RCX_FlushFIFO
                0x0c07dfb4                RCX_Set_RxAlign
 .text          0x0c07e22c     0x5744 D:/资料/工作资源/ARM7-SDK-2011-05-20/HHFiles/lib//libext.a(exlib.o)
                0x0c07e5ec                RTC_read_date
                0x0c07ec5c                DispChar_E
                0x0c080648                DispStr_E
                0x0c07ecf4                GetStr_E
                0x0c080650                EXT_Display_Multi_Lines
                0x0c07e5b0                RTC_read_time
                0x0c08396c                GetStr_CE
                0x0c08064c                DispStr_C
                0x0c080968                EXT_Brow_Select
                0x0c07e83c                get_flash_size
                0x0c080f30                EXT_Select_In_Line
                0x0c07e870                delay_and_wait_key
                0x0c081b8c                GetStr_CEX
                0x0c081600                EXT_Brow_Info
                0x0c07f908                DispStr_CE
                0x0c07e3a4                RTC_get_week
                0x0c07e668                RTC_set_date
                0x0c07e628                RTC_set_time
                0x0c07ec04                EXT_ClearLine
 .text          0x0c083970      0x114 D:/资料/工作资源/ARM7-SDK-2011-05-20/HHFiles/lib//libext.a(exlib_pinyin.o)
                0x0c083970                py_ime
 .text          0x0c083a84      0x324 D:/资料/工作资源/ARM7-SDK-2011-05-20/HHFiles/lib//libWiFi.a(libWiFi.o)
                0x0c083d18                CWiFi_ConnState
                0x0c083bcc                CWiFi_GetHostInfo
                0x0c083cd4                CWiFi_SetLocalNetMask
                0x0c083aa0                CWiFi_CloseMould
                0x0c083bbc                CWiFi_GetSocketStatus
                0x0c083bdc                CWiFi_GetHandle
                0x0c083cc8                CWiFi_GetNicMac
                0x0c083cd0                CWiFi_GetLocalNetMask
                0x0c083cfc                CWiFi_SetWiFiChanle
                0x0c083cf4                CWiFi_SetWiFiTransRate
                0x0c083cc0                CWiFi_GetSoftwareVer
                0x0c083d04                CWiFi_SetPowerMode
                0x0c083ce8                CNaNoWiFi_ClearRoutePSK
                0x0c083cdc                CWiFi_SetGatewayAddress
                0x0c083bf8                CWiFi_Read
                0x0c083ccc                CWiFi_SetNicMac
                0x0c083ce4                CWiFi_SetLocalAddress
                0x0c083c08                CWiFi_Connect
                0x0c083d1c                CWiFi_ResetModule
                0x0c083cc4                CWiFi_GetWiFiVersion
                0x0c083cd8                CWiFi_GetGatewayAddress
                0x0c083d2c                CWiFi_InitModule
                0x0c083be0                CWiFi_Write
                0x0c083bac                CWiFi_GetRepStatus
                0x0c083cf0                CWiFi_SetRouteSSID
                0x0c083ce0                CWiFi_GetLocalAddress
                0x0c083cec                CWiFi_SetRoutePSK
                0x0c083a84                CWiFi_SetMSGCallBack
                0x0c083b78                CWiFi_Disconnect
                0x0c083b0c                CWiFi_OpenMould
 .text          0x0c083da8     0x1fe8 D:/资料/工作资源/ARM7-SDK-2011-05-20/HHFiles/lib//libWiFi.a(CNaNoWiFi.o)
                0x0c085a78                CNaNoWiFi_GetSoftwareVer_0
                0x0c084318                CNaNoWiFi_SetLocalAddress_0
                0x0c085bcc                CNaNoWiFi_GetNicMac_0
                0x0c084a00                CNaNoWiFi_AT_i
                0x0c085cac                CNaNoWiFi_GetGatewayAddress_0
                0x0c083e10                CNaNoWiFi_Disconnect_0
                0x0c0843cc                CNaNoWiFi_ClearRoutePSK_0
                0x0c0856f8                CNaNoWiFi_ConnectUDP_0
                0x0c084a70                CNaNoWiFi_AT_iFD
                0x0c084580                CNaNoWiFi_SetRouteSSID_0
                0x0c085558                CNaNoWiFi_Read_0
                0x0c0847e0                CNaNoWiFi_SetPowerMode_0
                0x0c0840d4                CNaNoWiFi_GetNaNoWiFiInfo_0
                0x0c085d1c                CNaNoWiFi_GetLocalAddress_0
                0x0c0858b8                CNaNoWiFi_ConnectTCP_0
                0x0c0851fc                CNaNoWiFi_GetHandle_0
                0x0c083ee4                CNaNoWiFi_AT_IRP5
                0x0c0840fc                CNaNoWiFi_SetNicMac_0
                0x0c08538c                CNaNoWiFi_Write_0
                0x0c084638                CNaNoWiFi_SetWiFiTransRate_0
                0x0c085c3c                CNaNoWiFi_GetLocalNetMask_0
                0x0c08470c                CNaNoWiFi_SetWiFiChanle_0
                0x0c084ff4                CNaNoWiFi_GetHostInfo_0
                0x0c084cd4                CNaNoWiFi_GetRepStatus_0
                0x0c084264                CNaNoWiFi_SetGatewayAddress_0
                0x0c084e64                CNaNoWiFi_GetSocketStatus_0
                0x0c0841b0                CNaNoWiFi_SetLocalNetMask_0
                0x0c0844c8                CNaNoWiFi_SetRoutePSK_0
                0x0c084ad8                CNaNoWiFi_InitModule_0
                0x0c083fdc                CNaNoWiFi_AT_IRP1
 .text          0x0c085d90      0xf58 D:/资料/工作资源/ARM7-SDK-2011-05-20/HHFiles/lib//libWiFi.a(Analyse_0.o)
                0x0c086ba4                Analyse_0_NaNoWiFi_Result
                0x0c085d90                Analyse_0_NaNoWiFi_ERRORTYPE
                0x0c086950                Analyse_0_CallBackDisplay
 .text          0x0c086ce8      0x1a8 D:/资料/工作资源/ARM7-SDK-2011-05-20/HHFiles/lib//libWiFi.a(WiFiPubFuncs.o)
                0x0c086ce8                Myitoa
                0x0c086dcc                Myatoi
 .text          0x0c086e90      0x200 D:/资料/工作资源/ARM7-SDK-2011-05-20/HHFiles/lib//libWiFi.a(ARML.o)
                0x0c086e90                WiFi_ARML_ARM_UART_get_char
                0x0c086ed0                WiFi_ReadPort
                0x0c086fd4                WiFi_WritePort
 .text          0x0c087090      0x1f0 D:/资料/工作资源/ARM7-SDK-2011-05-20/HHFiles/lib//libWiFi.a(PhyL.o)
                0x0c087228                WiFi_PhyL_ARM_ClrUart
                0x0c087090                PhyL_Port_Close
                0x0c08711c                PhyL_Port_Open
 .text          0x0c087280      0xeb0 D:/资料/工作资源/ARM7-SDK-2011-05-20/HHFiles/lib//libdb.a(database.o)
                0x0c0877c0                DB_init_sys_param
                0x0c0876c4                DB_check_format
                0x0c0874bc                DB_jump_to_record
                0x0c08750c                db_find_match
                0x0c0880c4                DB_erase_db_sys
                0x0c0879e0                DB_format_db
                0x0c087364                DB_count_records
                0x0c087604                DB_check_record
                0x0c087984                DB_delete_record
                0x0c087c1c                DB_add_recordx
                0x0c087dac                DB_add_record
                0x0c088000                DB_erase_filesys
                0x0c0872fc                DB_capacity
 .text          0x0c088130      0x350 D:/资料/工作资源/ARM7-SDK-2011-05-20/HHFiles/lib//libusb.a(D12ci.o)
                0x0c088260                D12_Read_Last_Status
                0x0c0882bc                D12_Read_Interrupt_Register
                0x0c0881a8                D12_Read_Endpoint
                0x0c088398                D12_Set_Endpoint_Status
                0x0c0883e4                D12_Set_Mode
                0x0c08822c                D12_Read_Frame_Number
                0x0c0881a0                D12_Send_Resume
                0x0c0882a0                D12_Select_Endpoint
                0x0c0882f0                D12_Read_ChipID
                0x0c08844c                D12_Set_Address_Enable
                0x0c088130                D12_Clear_Buff
                0x0c088414                D12_Set_Endpoint_Enable
                0x0c0883c0                D12_Set_DMA
                0x0c08816c                D12_Acknowledge_Endpoint
                0x0c088280                D12_Read_Endpoint_Status
                0x0c088324                D12_Write_Endpoint
 .text          0x0c088480      0x4c4 D:/资料/工作资源/ARM7-SDK-2011-05-20/HHFiles/lib//libusb.a(D12Driver.o)
                0x0c088818                USB_Exception
                0x0c0888ec                USB_Init
                0x0c088534                USB_EP0_Txdone
                0x0c088484                USB_EP2_Txdone
                0x0c0888d4                USB_Reconnect
                0x0c088628                USB_EP0_Rxdone
                0x0c0888c8                USB_Disconnect
                0x0c088480                USB_Suspend
                0x0c088508                USB_EP1_Rxdone
                0x0c0888bc                USB_Connect
                0x0c0884b0                USB_EP1_Txdone
                0x0c0884dc                USB_EP2_Rxdone
 .text          0x0c088944       0x74 D:/资料/工作资源/ARM7-SDK-2011-05-20/HHFiles/lib//libusb.a(D12hal.o)
                0x0c08899c                Input_DAT
                0x0c088944                Bus_Delay
                0x0c08897c                Output_DAT
                0x0c08895c                Output_CMD
 .text          0x0c0889b8      0x4d4 D:/资料/工作资源/ARM7-SDK-2011-05-20/HHFiles/lib//libusb.a(Chap_9.o)
                0x0c088b2c                Single_Transmit
                0x0c088cac                Clear_Feature
                0x0c088a24                Reserved
                0x0c088e10                Set_Configuration
                0x0c088c04                Set_Feature
                0x0c088e08                Init_Unconfig
                0x0c088ad8                Get_Descriptor
                0x0c088bd0                Set_Address
                0x0c088b70                Get_Interface
                0x0c088d34                Get_Status
                0x0c088b98                Get_Configuration
                0x0c088a28                Code_Transmit
                0x0c088e00                Init_Config
                0x0c0889b8                Stall_EP0
                0x0c088b44                Set_Interface
                0x0c0889e0                Control_Handler
 .text          0x0c088e8c        0x0 D:/资料/工作资源/ARM7-SDK-2011-05-20/HHFiles/lib//libusb.a(Descriptor.o)
 .text          0x0c088e8c      0x110 D:/资料/工作资源/ARM7-SDK-2011-05-20/GNU/arm-elf/lib//libgcc.a(_udivsi3.o)
                0x0c088e8c                __udivsi3
                0x0c088e8c                __aeabi_uidiv
                0x0c088f84                __aeabi_uidivmod
 .text          0x0c088f9c      0x140 D:/资料/工作资源/ARM7-SDK-2011-05-20/GNU/arm-elf/lib//libgcc.a(_divsi3.o)
                0x0c088f9c                __aeabi_idiv
                0x0c088f9c                __divsi3
                0x0c0890c4                __aeabi_idivmod
 .text          0x0c0890dc       0xcc D:/资料/工作资源/ARM7-SDK-2011-05-20/GNU/arm-elf/lib//libgcc.a(_umodsi3.o)
                0x0c0890dc                __umodsi3
 .text          0x0c0891a8       0xe4 D:/资料/工作资源/ARM7-SDK-2011-05-20/GNU/arm-elf/lib//libgcc.a(_modsi3.o)
                0x0c0891a8                __modsi3
 .text          0x0c08928c        0x4 D:/资料/工作资源/ARM7-SDK-2011-05-20/GNU/arm-elf/lib//libgcc.a(_dvmd_tls.o)
                0x0c08928c                __aeabi_ldiv0
                0x0c08928c                __div0
                0x0c08928c                __aeabi_idiv0
 .text          0x0c089290      0x400 D:/资料/工作资源/ARM7-SDK-2011-05-20/GNU/arm-elf/lib//libgcc.a(_addsubdf3.o)
                0x0c089624                __floatdidf
                0x0c0895a4                __floatsidf
                0x0c08957c                __aeabi_ui2d
                0x0c089290                __aeabi_drsub
                0x0c0895d0                __extendsfdf2
                0x0c08929c                __adddf3
                0x0c08957c                __floatunsidf
                0x0c08929c                __aeabi_dadd
                0x0c089610                __aeabi_ul2d
                0x0c089298                __aeabi_dsub
                0x0c089610                __floatundidf
                0x0c0895a4                __aeabi_i2d
                0x0c089624                __aeabi_l2d
                0x0c0895d0                __aeabi_f2d
                0x0c089298                __subdf3
 .text          0x0c089690      0x470 D:/资料/工作资源/ARM7-SDK-2011-05-20/GNU/arm-elf/lib//libgcc.a(_muldivdf3.o)
                0x0c0898fc                __aeabi_ddiv
                0x0c089690                __aeabi_dmul
                0x0c0898fc                __divdf3
                0x0c089690                __muldf3
 .text          0x0c089b00      0x128 D:/资料/工作资源/ARM7-SDK-2011-05-20/GNU/arm-elf/lib//libgcc.a(_cmpdf2.o)
                0x0c089bec                __aeabi_dcmple
                0x0c089b10                __cmpdf2
                0x0c089b10                __eqdf2
                0x0c089b00                __gtdf2
                0x0c089bb0                __aeabi_cdcmple
                0x0c089b94                __aeabi_cdrcmple
                0x0c089b08                __ltdf2
                0x0c089bd8                __aeabi_dcmplt
                0x0c089b08                __ledf2
                0x0c089c14                __aeabi_dcmpgt
                0x0c089c00                __aeabi_dcmpge
                0x0c089b10                __nedf2
                0x0c089bc4                __aeabi_dcmpeq
                0x0c089bb0                __aeabi_cdcmpeq
                0x0c089b00                __gedf2
 .text          0x0c089c28       0x5c D:/资料/工作资源/ARM7-SDK-2011-05-20/GNU/arm-elf/lib//libgcc.a(_fixdfsi.o)
                0x0c089c28                __fixdfsi
                0x0c089c28                __aeabi_d2iz
 .text          0x0c089c84       0x54 D:/资料/工作资源/ARM7-SDK-2011-05-20/GNU/arm-elf/lib//libgcc.a(_fixunsdfsi.o)
                0x0c089c84                __fixunsdfsi
                0x0c089c84                __aeabi_d2uiz
 .text          0x0c089cd8       0xa0 D:/资料/工作资源/ARM7-SDK-2011-05-20/GNU/arm-elf/lib//libgcc.a(_truncdfsf2.o)
                0x0c089cd8                __aeabi_d2f
                0x0c089cd8                __truncdfsf2
 .text          0x0c089d78       0x18 D:/资料/工作资源/ARM7-SDK-2011-05-20/GNU/arm-elf/lib//libc.a(lib_a-atol.o)
                0x0c089d78                _atol_r
                0x0c089d84                atol
 .text          0x0c089d90       0x94 D:/资料/工作资源/ARM7-SDK-2011-05-20/GNU/arm-elf/lib//libc.a(lib_a-memcmp.o)
                0x0c089d90                memcmp
 .text          0x0c089e24       0xa4 D:/资料/工作资源/ARM7-SDK-2011-05-20/GNU/arm-elf/lib//libc.a(lib_a-strcat.o)
                0x0c089e24                strcat
 .text          0x0c089ec8       0x50 D:/资料/工作资源/ARM7-SDK-2011-05-20/GNU/arm-elf/lib//libc.a(lib_a-strstr.o)
                0x0c089ec8                strstr
 .text          0x0c089f18      0x4bc D:/资料/工作资源/ARM7-SDK-2011-05-20/GNU/arm-elf/lib//libm.a(lib_a-w_pow.o)
                0x0c089f18                pow
 .text          0x0c08a3d4     0x1110 D:/资料/工作资源/ARM7-SDK-2011-05-20/GNU/arm-elf/lib//libm.a(lib_a-e_pow.o)
                0x0c08a3d4                __ieee754_pow
 .text          0x0c08b4e4      0x288 D:/资料/工作资源/ARM7-SDK-2011-05-20/GNU/arm-elf/lib//libm.a(lib_a-e_sqrt.o)
                0x0c08b4e4                __ieee754_sqrt
 .text          0x0c08b76c       0x20 D:/资料/工作资源/ARM7-SDK-2011-05-20/GNU/arm-elf/lib//libm.a(lib_a-s_fabs.o)
                0x0c08b76c                fabs
 .text          0x0c08b78c       0x18 D:/资料/工作资源/ARM7-SDK-2011-05-20/GNU/arm-elf/lib//libm.a(lib_a-s_finite.o)
                0x0c08b78c                finite
 .text          0x0c08b7a4        0x0 D:/资料/工作资源/ARM7-SDK-2011-05-20/GNU/arm-elf/lib//libm.a(lib_a-s_lib_ver.o)
 .text          0x0c08b7a4        0x8 D:/资料/工作资源/ARM7-SDK-2011-05-20/GNU/arm-elf/lib//libm.a(lib_a-s_matherr.o)
                0x0c08b7a4                matherr
 .text          0x0c08b7ac      0x1c8 D:/资料/工作资源/ARM7-SDK-2011-05-20/GNU/arm-elf/lib//libm.a(lib_a-s_rint.o)
                0x0c08b7ac                rint
 .text          0x0c08b974      0x1d4 D:/资料/工作资源/ARM7-SDK-2011-05-20/GNU/arm-elf/lib//libm.a(lib_a-s_scalbn.o)
                0x0c08b974                scalbn
 .text          0x0c08bb48       0x24 D:/资料/工作资源/ARM7-SDK-2011-05-20/GNU/arm-elf/lib//libm.a(lib_a-s_copysign.o)
                0x0c08bb48                copysign
 .text          0x0c08bb6c       0x10 D:/资料/工作资源/ARM7-SDK-2011-05-20/GNU/arm-elf/lib//libc.a(lib_a-errno.o)
                0x0c08bb6c                __errno
                0x0c08bb7c                . = ALIGN (0x4)
                0x0c08bb7c                __CTOR_LIST__ = .
                0x0c08bb7c        0x4 LONG 0x0 (((__CTOR_END__ - __CTOR_LIST__) / 0x4) - 0x2)
 *(.ctors)
                0x0c08bb80        0x4 LONG 0x0
                0x0c08bb84                __CTOR_END__ = .
                0x0c08bb84                __DTOR_LIST__ = .
                0x0c08bb84        0x4 LONG 0x0 (((__DTOR_END__ - __DTOR_LIST__) / 0x4) - 0x2)
 *(.dtors)
                0x0c08bb88        0x4 LONG 0x0
                0x0c08bb8c                __DTOR_END__ = .
 *(.rodata)
 .rodata        0x0c08bb8c       0x20 D:/项目文件夹/WiFi_Demo/Release/fun.o
 .rodata        0x0c08bbac       0x20 D:/项目文件夹/WiFi_Demo/Release/mifare.o
 .rodata        0x0c08bbcc       0x44 D:/项目文件夹/WiFi_Demo/Release/cal_key.o
 .rodata        0x0c08bc10      0x208 D:/项目文件夹/WiFi_Demo/Release/iso8583.o
 .rodata        0x0c08be18       0x20 D:/资料/工作资源/ARM7-SDK-2011-05-20/GNU/arm-elf/lib//libc.a(lib_a-vfprintf.o)
 .rodata        0x0c08be38       0x22 D:/资料/工作资源/ARM7-SDK-2011-05-20/GNU/arm-elf/lib//libc.a(lib_a-vfscanf.o)
 .rodata        0x0c08be5a      0x101 D:/资料/工作资源/ARM7-SDK-2011-05-20/GNU/arm-elf/lib//libc.a(lib_a-ctype_.o)
                0x0c08be5a                _ctype_
 *fill*         0x0c08bf5b        0x1 00
 .rodata        0x0c08bf5c        0x4 D:/资料/工作资源/ARM7-SDK-2011-05-20/GNU/arm-elf/lib//libc.a(lib_a-impure.o)
                0x0c08bf5c                _global_impure_ptr
 .rodata        0x0c08bf60       0x34 D:/资料/工作资源/ARM7-SDK-2011-05-20/GNU/arm-elf/lib//libc.a(lib_a-locale.o)
 .rodata        0x0c08bf94      0x124 D:/资料/工作资源/ARM7-SDK-2011-05-20/GNU/arm-elf/lib//libc.a(lib_a-mprec.o)
                0x0c08c084                __mprec_tinytens
                0x0c08bf94                __mprec_tens
                0x0c08c05c                __mprec_bigtens
 .rodata        0x0c08c0b8       0x28 D:/资料/工作资源/ARM7-SDK-2011-05-20/GNU/arm-elf/lib//libc.a(lib_a-strtod.o)
 .rodata        0x0c08c0e0       0x50 D:/资料/工作资源/ARM7-SDK-2011-05-20/HHFiles/lib//libcard.a(cpucard.o)
                0x0c08c110                DI_D_table
                0x0c08c0e0                FI_PDR_table
                0x0c08c0f0                FI_F_table
 .rodata        0x0c08c130       0x28 D:/资料/工作资源/ARM7-SDK-2011-05-20/HHFiles/lib//libcontactless.a(iso14443.o)
 .rodata        0x0c08c158      0x2f0 D:/资料/工作资源/ARM7-SDK-2011-05-20/HHFiles/lib//libext.a(exlib.o)
 .rodata        0x0c08c448       0x3e D:/资料/工作资源/ARM7-SDK-2011-05-20/HHFiles/lib//libWiFi.a(WiFiPubFuncs.o)
 .rodata        0x0c08c486      0x200 D:/资料/工作资源/ARM7-SDK-2011-05-20/HHFiles/lib//libdb.a(database.o)
 *fill*         0x0c08c686        0x2 00
 .rodata        0x0c08c688       0x4c D:/资料/工作资源/ARM7-SDK-2011-05-20/HHFiles/lib//libusb.a(Descriptor.o)
                0x0c08c688                DeviceDescr
                0x0c08c69c                usb_descr
 .rodata        0x0c08c6d4       0x30 D:/资料/工作资源/ARM7-SDK-2011-05-20/GNU/arm-elf/lib//libm.a(lib_a-e_pow.o)
 .rodata        0x0c08c704       0x10 D:/资料/工作资源/ARM7-SDK-2011-05-20/GNU/arm-elf/lib//libm.a(lib_a-s_rint.o)
 *(.rodata*)
 .rodata.str1.4
                0x0c08c714       0x15 D:/项目文件夹/WiFi_Demo/Release/WiFi_Demo.o
                                 0x18 (size before relaxing)
 *fill*         0x0c08c729        0x3 00
 .rodata.str1.4
                0x0c08c72c       0xb3 D:/项目文件夹/WiFi_Demo/Release/d_upload.o
                                 0xc4 (size before relaxing)
 *fill*         0x0c08c7df        0x1 00
 .rodata.str1.4
                0x0c08c7e0      0x208 D:/项目文件夹/WiFi_Demo/Release/fun.o
                                0x228 (size before relaxing)
 .rodata.str1.4
                0x0c08c9e8       0xd8 D:/项目文件夹/WiFi_Demo/Release/macset.o
                                0x114 (size before relaxing)
 .rodata.str1.4
                0x0c08cac0      0x154 D:/项目文件夹/WiFi_Demo/Release/vst_db.o
                                0x164 (size before relaxing)
 .rodata.str1.4
                0x0c08cc14      0x22c D:/项目文件夹/WiFi_Demo/Release/wifi_con.o
                                0x2ac (size before relaxing)
 .rodata.str1.4
                0x0c08ce40      0x169 D:/项目文件夹/WiFi_Demo/Release/mifare.o
                                0x18c (size before relaxing)
 *fill*         0x0c08cfa9        0x3 00
 .rodata.str1.4
                0x0c08cfac       0xa3 D:/项目文件夹/WiFi_Demo/Release/usbprog.o
                                 0xa4 (size before relaxing)
 *fill*         0x0c08d04f        0x1 00
 .rodata.str1.4
                0x0c08d050       0xa8 D:/项目文件夹/WiFi_Demo/Release/db.o
                                 0xd0 (size before relaxing)
 .rodata.str1.4
                0x0c08d0f8       0x5a D:/项目文件夹/WiFi_Demo/Release/iso8583.o
                                 0x64 (size before relaxing)
 .rodata.str1.4
                0x00000000        0x8 D:/项目文件夹/WiFi_Demo/Release/cpu_card.o
 *fill*         0x0c08d152        0x2 00
 .rodata.str1.4
                0x0c08d154       0x5f D:/资料/工作资源/ARM7-SDK-2011-05-20/GNU/arm-elf/lib//libc.a(lib_a-vfprintf.o)
                                 0x64 (size before relaxing)
 *fill*         0x0c08d1b3        0x1 00
 .rodata.str1.4
                0x0c08d1b4        0x5 D:/资料/工作资源/ARM7-SDK-2011-05-20/GNU/arm-elf/lib//libc.a(lib_a-vfscanf.o)
                                  0x8 (size before relaxing)
 *fill*         0x0c08d1b9        0x3 00
 .rodata.str1.4
                0x0c08d1bc       0x1e D:/资料/工作资源/ARM7-SDK-2011-05-20/GNU/arm-elf/lib//libc.a(lib_a-wctomb_r.o)
                                 0x20 (size before relaxing)
 *fill*         0x0c08d1da        0x2 00
 .rodata.str1.4
                0x0c08d1dc       0x10 D:/资料/工作资源/ARM7-SDK-2011-05-20/GNU/arm-elf/lib//libc.a(lib_a-dtoa.o)
                                 0x14 (size before relaxing)
 .rodata.str1.4
                0x0c08d1ec        0x2 D:/资料/工作资源/ARM7-SDK-2011-05-20/GNU/arm-elf/lib//libc.a(lib_a-impure.o)
                                  0x4 (size before relaxing)
 *fill*         0x0c08d1ee        0x2 00
 .rodata.str1.4
                0x0c08d1f0        0xb D:/资料/工作资源/ARM7-SDK-2011-05-20/GNU/arm-elf/lib//libc.a(lib_a-locale.o)
                                 0x18 (size before relaxing)
 .rodata.str1.4
                0x00000000        0x4 D:/资料/工作资源/ARM7-SDK-2011-05-20/GNU/arm-elf/lib//libc.a(lib_a-mbrtowc.o)
 *fill*         0x0c08d1fb        0x1 00
 .rodata.str1.4
                0x0c08d1fc        0xf D:/资料/工作资源/ARM7-SDK-2011-05-20/GNU/arm-elf/lib//libc.a(lib_a-strtod.o)
                                 0x10 (size before relaxing)
 *fill*         0x0c08d20b        0x1 00
 .rodata.str1.4
                0x0c08d20c       0x1b D:/资料/工作资源/ARM7-SDK-2011-05-20/GNU/arm-elf/lib//libc.a(lib_a-gdtoa-gethex.o)
                                 0x1c (size before relaxing)
 *fill*         0x0c08d227        0x1 00
 .rodata.str1.4
                0x0c08d228       0x76 D:/资料/工作资源/ARM7-SDK-2011-05-20/HHFiles/lib//libext.a(exlib.o)
                                 0x88 (size before relaxing)
 *fill*         0x0c08d29e        0x2 00
 .rodata.str1.4
                0x0c08d2a0       0xfc D:/资料/工作资源/ARM7-SDK-2011-05-20/HHFiles/lib//libext.a(exlib_pinyin.o)
                                0x10c (size before relaxing)
 .rodata.str1.4
                0x0c08d39c       0x5d D:/资料/工作资源/ARM7-SDK-2011-05-20/HHFiles/lib//libWiFi.a(libWiFi.o)
                                 0x60 (size before relaxing)
 *fill*         0x0c08d3f9        0x3 00
 .rodata.str1.4
                0x0c08d3fc      0x1ce D:/资料/工作资源/ARM7-SDK-2011-05-20/HHFiles/lib//libWiFi.a(CNaNoWiFi.o)
                                0x1d4 (size before relaxing)
 *fill*         0x0c08d5ca        0x2 00
 .rodata.str1.4
                0x0c08d5cc      0x324 D:/资料/工作资源/ARM7-SDK-2011-05-20/HHFiles/lib//libWiFi.a(Analyse_0.o)
                                0x364 (size before relaxing)
 .rodata.str1.4
                0x0c08d8f0        0x4 D:/资料/工作资源/ARM7-SDK-2011-05-20/GNU/arm-elf/lib//libm.a(lib_a-w_pow.o)
 *(.glue_7t)
 .glue_7t       0x0c08d8f4        0x0 D:/项目文件夹/WiFi_Demo/Release/crt0.o
 .glue_7t       0x0c08d8f4        0x0 D:/项目文件夹/WiFi_Demo/Release/WiFi_Demo.o
 .glue_7t       0x0c08d8f4        0x0 D:/项目文件夹/WiFi_Demo/Release/d_upload.o
 .glue_7t       0x0c08d8f4        0x0 D:/项目文件夹/WiFi_Demo/Release/fun.o
 .glue_7t       0x0c08d8f4        0x0 D:/项目文件夹/WiFi_Demo/Release/macset.o
 .glue_7t       0x0c08d8f4        0x0 D:/项目文件夹/WiFi_Demo/Release/vst_db.o
 .glue_7t       0x0c08d8f4        0x0 D:/项目文件夹/WiFi_Demo/Release/wifi_con.o
 .glue_7t       0x0c08d8f4        0x0 D:/项目文件夹/WiFi_Demo/Release/eeprom.o
 .glue_7t       0x0c08d8f4        0x0 D:/项目文件夹/WiFi_Demo/Release/mifare.o
 .glue_7t       0x0c08d8f4        0x0 D:/项目文件夹/WiFi_Demo/Release/cal_key.o
 .glue_7t       0x0c08d8f4        0x0 D:/项目文件夹/WiFi_Demo/Release/usbprog.o
 .glue_7t       0x0c08d8f4        0x0 D:/项目文件夹/WiFi_Demo/Release/db.o
 .glue_7t       0x0c08d8f4        0x0 D:/项目文件夹/WiFi_Demo/Release/iso8583.o
 .glue_7t       0x0c08d8f4        0x0 D:/项目文件夹/WiFi_Demo/Release/cpu_card.o
 .glue_7t       0x0c08d8f4        0x0 D:/资料/工作资源/ARM7-SDK-2011-05-20/GNU/arm-elf/lib//libc.a(lib_a-fprintf.o)
 .glue_7t       0x0c08d8f4        0x0 D:/资料/工作资源/ARM7-SDK-2011-05-20/GNU/arm-elf/lib//libc.a(lib_a-memcpy.o)
 .glue_7t       0x0c08d8f4        0x0 D:/资料/工作资源/ARM7-SDK-2011-05-20/GNU/arm-elf/lib//libc.a(lib_a-memset.o)
 .glue_7t       0x0c08d8f4        0x0 D:/资料/工作资源/ARM7-SDK-2011-05-20/GNU/arm-elf/lib//libc.a(lib_a-sprintf.o)
 .glue_7t       0x0c08d8f4        0x0 D:/资料/工作资源/ARM7-SDK-2011-05-20/GNU/arm-elf/lib//libc.a(lib_a-sscanf.o)
 .glue_7t       0x0c08d8f4        0x0 D:/资料/工作资源/ARM7-SDK-2011-05-20/GNU/arm-elf/lib//libc.a(lib_a-strcpy.o)
 .glue_7t       0x0c08d8f4        0x0 D:/资料/工作资源/ARM7-SDK-2011-05-20/GNU/arm-elf/lib//libc.a(lib_a-strlen.o)
 .glue_7t       0x0c08d8f4        0x0 D:/资料/工作资源/ARM7-SDK-2011-05-20/GNU/arm-elf/lib//libc.a(lib_a-strncmp.o)
 .glue_7t       0x0c08d8f4        0x0 D:/资料/工作资源/ARM7-SDK-2011-05-20/GNU/arm-elf/lib//libc.a(lib_a-strncpy.o)
 .glue_7t       0x0c08d8f4        0x0 D:/资料/工作资源/ARM7-SDK-2011-05-20/GNU/arm-elf/lib//libc.a(lib_a-strtoul.o)
 .glue_7t       0x0c08d8f4        0x0 D:/资料/工作资源/ARM7-SDK-2011-05-20/GNU/arm-elf/lib//libc.a(lib_a-vfprintf.o)
 .glue_7t       0x0c08d8f4        0x0 D:/资料/工作资源/ARM7-SDK-2011-05-20/GNU/arm-elf/lib//libc.a(lib_a-vfscanf.o)
 .glue_7t       0x0c08d8f4        0x0 D:/资料/工作资源/ARM7-SDK-2011-05-20/GNU/arm-elf/lib//libc.a(lib_a-wcrtomb.o)
 .glue_7t       0x0c08d8f4        0x0 D:/资料/工作资源/ARM7-SDK-2011-05-20/GNU/arm-elf/lib//libc.a(lib_a-wcsrtombs.o)
 .glue_7t       0x0c08d8f4        0x0 D:/资料/工作资源/ARM7-SDK-2011-05-20/GNU/arm-elf/lib//libc.a(lib_a-wctomb_r.o)
 .glue_7t       0x0c08d8f4        0x0 D:/资料/工作资源/ARM7-SDK-2011-05-20/GNU/arm-elf/lib//libc.a(lib_a-wsetup.o)
 .glue_7t       0x0c08d8f4        0x0 D:/资料/工作资源/ARM7-SDK-2011-05-20/GNU/arm-elf/lib//libc.a(lib_a-ctype_.o)
 .glue_7t       0x0c08d8f4        0x0 D:/资料/工作资源/ARM7-SDK-2011-05-20/GNU/arm-elf/lib//libc.a(lib_a-dtoa.o)
 .glue_7t       0x0c08d8f4        0x0 D:/资料/工作资源/ARM7-SDK-2011-05-20/GNU/arm-elf/lib//libc.a(lib_a-fflush.o)
 .glue_7t       0x0c08d8f4        0x0 D:/资料/工作资源/ARM7-SDK-2011-05-20/GNU/arm-elf/lib//libc.a(lib_a-findfp.o)
 .glue_7t       0x0c08d8f4        0x0 D:/资料/工作资源/ARM7-SDK-2011-05-20/GNU/arm-elf/lib//libc.a(lib_a-fread.o)
 .glue_7t       0x0c08d8f4        0x0 D:/资料/工作资源/ARM7-SDK-2011-05-20/GNU/arm-elf/lib//libc.a(lib_a-freer.o)
 .glue_7t       0x0c08d8f4        0x0 D:/资料/工作资源/ARM7-SDK-2011-05-20/GNU/arm-elf/lib//libc.a(lib_a-fvwrite.o)
 .glue_7t       0x0c08d8f4        0x0 D:/资料/工作资源/ARM7-SDK-2011-05-20/GNU/arm-elf/lib//libc.a(lib_a-fwalk.o)
 .glue_7t       0x0c08d8f4        0x0 D:/资料/工作资源/ARM7-SDK-2011-05-20/GNU/arm-elf/lib//libc.a(lib_a-impure.o)
 .glue_7t       0x0c08d8f4        0x0 D:/资料/工作资源/ARM7-SDK-2011-05-20/GNU/arm-elf/lib//libc.a(lib_a-iswspace.o)
 .glue_7t       0x0c08d8f4        0x0 D:/资料/工作资源/ARM7-SDK-2011-05-20/GNU/arm-elf/lib//libc.a(lib_a-locale.o)
 .glue_7t       0x0c08d8f4        0x0 D:/资料/工作资源/ARM7-SDK-2011-05-20/GNU/arm-elf/lib//libc.a(lib_a-makebuf.o)
 .glue_7t       0x0c08d8f4        0x0 D:/资料/工作资源/ARM7-SDK-2011-05-20/GNU/arm-elf/lib//libc.a(lib_a-mallocr.o)
 .glue_7t       0x0c08d8f4        0x0 D:/资料/工作资源/ARM7-SDK-2011-05-20/GNU/arm-elf/lib//libc.a(lib_a-mbrtowc.o)
 .glue_7t       0x0c08d8f4        0x0 D:/资料/工作资源/ARM7-SDK-2011-05-20/GNU/arm-elf/lib//libc.a(lib_a-mbtowc_r.o)
 .glue_7t       0x0c08d8f4        0x0 D:/资料/工作资源/ARM7-SDK-2011-05-20/GNU/arm-elf/lib//libc.a(lib_a-memchr.o)
 .glue_7t       0x0c08d8f4        0x0 D:/资料/工作资源/ARM7-SDK-2011-05-20/GNU/arm-elf/lib//libc.a(lib_a-memmove.o)
 .glue_7t       0x0c08d8f4        0x0 D:/资料/工作资源/ARM7-SDK-2011-05-20/GNU/arm-elf/lib//libc.a(lib_a-mlock.o)
 .glue_7t       0x0c08d8f4        0x0 D:/资料/工作资源/ARM7-SDK-2011-05-20/GNU/arm-elf/lib//libc.a(lib_a-mprec.o)
 .glue_7t       0x0c08d8f4        0x0 D:/资料/工作资源/ARM7-SDK-2011-05-20/GNU/arm-elf/lib//libc.a(lib_a-reallocr.o)
 .glue_7t       0x0c08d8f4        0x0 D:/资料/工作资源/ARM7-SDK-2011-05-20/GNU/arm-elf/lib//libc.a(lib_a-refill.o)
 .glue_7t       0x0c08d8f4        0x0 D:/资料/工作资源/ARM7-SDK-2011-05-20/GNU/arm-elf/lib//libc.a(lib_a-s_isinfd.o)
 .glue_7t       0x0c08d8f4        0x0 D:/资料/工作资源/ARM7-SDK-2011-05-20/GNU/arm-elf/lib//libc.a(lib_a-s_isnand.o)
 .glue_7t       0x0c08d8f4        0x0 D:/资料/工作资源/ARM7-SDK-2011-05-20/GNU/arm-elf/lib//libc.a(lib_a-sccl.o)
 .glue_7t       0x0c08d8f4        0x0 D:/资料/工作资源/ARM7-SDK-2011-05-20/GNU/arm-elf/lib//libc.a(lib_a-sf_nan.o)
 .glue_7t       0x0c08d8f4        0x0 D:/资料/工作资源/ARM7-SDK-2011-05-20/GNU/arm-elf/lib//libc.a(lib_a-stdio.o)
 .glue_7t       0x0c08d8f4        0x0 D:/资料/工作资源/ARM7-SDK-2011-05-20/GNU/arm-elf/lib//libc.a(lib_a-strcmp.o)
 .glue_7t       0x0c08d8f4        0x0 D:/资料/工作资源/ARM7-SDK-2011-05-20/GNU/arm-elf/lib//libc.a(lib_a-strtod.o)
 .glue_7t       0x0c08d8f4        0x0 D:/资料/工作资源/ARM7-SDK-2011-05-20/GNU/arm-elf/lib//libc.a(lib_a-strtol.o)
 .glue_7t       0x0c08d8f4        0x0 D:/资料/工作资源/ARM7-SDK-2011-05-20/GNU/arm-elf/lib//libc.a(lib_a-ungetc.o)
 .glue_7t       0x0c08d8f4        0x0 D:/资料/工作资源/ARM7-SDK-2011-05-20/GNU/arm-elf/lib//libc.a(lib_a-callocr.o)
 .glue_7t       0x0c08d8f4        0x0 D:/资料/工作资源/ARM7-SDK-2011-05-20/GNU/arm-elf/lib//libc.a(lib_a-fclose.o)
 .glue_7t       0x0c08d8f4        0x0 D:/资料/工作资源/ARM7-SDK-2011-05-20/GNU/arm-elf/lib//libc.a(lib_a-gdtoa-gethex.o)
 .glue_7t       0x0c08d8f4        0x0 D:/资料/工作资源/ARM7-SDK-2011-05-20/GNU/arm-elf/lib//libc.a(lib_a-gdtoa-hexnan.o)
 .glue_7t       0x0c08d8f4        0x0 D:/资料/工作资源/ARM7-SDK-2011-05-20/HHFiles/lib//libARMPos.a(libARMPos.o)
 .glue_7t       0x0c08d8f4        0x0 D:/资料/工作资源/ARM7-SDK-2011-05-20/HHFiles/lib//libARMPos.a(call_api.o)
 .glue_7t       0x0c08d8f4        0x0 D:/资料/工作资源/ARM7-SDK-2011-05-20/HHFiles/lib//libcard.a(libcard.o)
 .glue_7t       0x0c08d8f4        0x0 D:/资料/工作资源/ARM7-SDK-2011-05-20/HHFiles/lib//libcard.a(cpucard.o)
 .glue_7t       0x0c08d8f4        0x0 D:/资料/工作资源/ARM7-SDK-2011-05-20/HHFiles/lib//libcontactless.a(iso14443.o)
 .glue_7t       0x0c08d8f4        0x0 D:/资料/工作资源/ARM7-SDK-2011-05-20/HHFiles/lib//libcontactless.a(mifare.o)
 .glue_7t       0x0c08d8f4        0x0 D:/资料/工作资源/ARM7-SDK-2011-05-20/HHFiles/lib//libcontactless.a(port.o)
 .glue_7t       0x0c08d8f4        0x0 D:/资料/工作资源/ARM7-SDK-2011-05-20/HHFiles/lib//libcontactless.a(rcxcomm.o)
 .glue_7t       0x0c08d8f4        0x0 D:/资料/工作资源/ARM7-SDK-2011-05-20/HHFiles/lib//libcontactless.a(rcxreg.o)
 .glue_7t       0x0c08d8f4        0x0 D:/资料/工作资源/ARM7-SDK-2011-05-20/HHFiles/lib//libext.a(exlib.o)
 .glue_7t       0x0c08d8f4        0x0 D:/资料/工作资源/ARM7-SDK-2011-05-20/HHFiles/lib//libext.a(exlib_pinyin.o)
 .glue_7t       0x0c08d8f4        0x0 D:/资料/工作资源/ARM7-SDK-2011-05-20/HHFiles/lib//libWiFi.a(libWiFi.o)
 .glue_7t       0x0c08d8f4        0x0 D:/资料/工作资源/ARM7-SDK-2011-05-20/HHFiles/lib//libWiFi.a(CNaNoWiFi.o)
 .glue_7t       0x0c08d8f4        0x0 D:/资料/工作资源/ARM7-SDK-2011-05-20/HHFiles/lib//libWiFi.a(Analyse_0.o)
 .glue_7t       0x0c08d8f4        0x0 D:/资料/工作资源/ARM7-SDK-2011-05-20/HHFiles/lib//libWiFi.a(WiFiPubFuncs.o)
 .glue_7t       0x0c08d8f4        0x0 D:/资料/工作资源/ARM7-SDK-2011-05-20/HHFiles/lib//libWiFi.a(ARML.o)
 .glue_7t       0x0c08d8f4        0x0 D:/资料/工作资源/ARM7-SDK-2011-05-20/HHFiles/lib//libWiFi.a(PhyL.o)
 .glue_7t       0x0c08d8f4        0x0 D:/资料/工作资源/ARM7-SDK-2011-05-20/HHFiles/lib//libdb.a(database.o)
 .glue_7t       0x0c08d8f4        0x0 D:/资料/工作资源/ARM7-SDK-2011-05-20/HHFiles/lib//libusb.a(D12ci.o)
 .glue_7t       0x0c08d8f4        0x0 D:/资料/工作资源/ARM7-SDK-2011-05-20/HHFiles/lib//libusb.a(D12Driver.o)
 .glue_7t       0x0c08d8f4        0x0 D:/资料/工作资源/ARM7-SDK-2011-05-20/HHFiles/lib//libusb.a(D12hal.o)
 .glue_7t       0x0c08d8f4        0x0 D:/资料/工作资源/ARM7-SDK-2011-05-20/HHFiles/lib//libusb.a(Chap_9.o)
 .glue_7t       0x0c08d8f4        0x0 D:/资料/工作资源/ARM7-SDK-2011-05-20/HHFiles/lib//libusb.a(Descriptor.o)
 .glue_7t       0x0c08d8f4        0x0 D:/资料/工作资源/ARM7-SDK-2011-05-20/GNU/arm-elf/lib//libgcc.a(_udivsi3.o)
 .glue_7t       0x0c08d8f4        0x0 D:/资料/工作资源/ARM7-SDK-2011-05-20/GNU/arm-elf/lib//libgcc.a(_divsi3.o)
 .glue_7t       0x0c08d8f4        0x0 D:/资料/工作资源/ARM7-SDK-2011-05-20/GNU/arm-elf/lib//libgcc.a(_umodsi3.o)
 .glue_7t       0x0c08d8f4        0x0 D:/资料/工作资源/ARM7-SDK-2011-05-20/GNU/arm-elf/lib//libgcc.a(_modsi3.o)
 .glue_7t       0x0c08d8f4        0x0 D:/资料/工作资源/ARM7-SDK-2011-05-20/GNU/arm-elf/lib//libgcc.a(_dvmd_tls.o)
 .glue_7t       0x0c08d8f4        0x0 D:/资料/工作资源/ARM7-SDK-2011-05-20/GNU/arm-elf/lib//libgcc.a(_addsubdf3.o)
 .glue_7t       0x0c08d8f4        0x0 D:/资料/工作资源/ARM7-SDK-2011-05-20/GNU/arm-elf/lib//libgcc.a(_muldivdf3.o)
 .glue_7t       0x0c08d8f4        0x0 D:/资料/工作资源/ARM7-SDK-2011-05-20/GNU/arm-elf/lib//libgcc.a(_cmpdf2.o)
 .glue_7t       0x0c08d8f4        0x0 D:/资料/工作资源/ARM7-SDK-2011-05-20/GNU/arm-elf/lib//libgcc.a(_fixdfsi.o)
 .glue_7t       0x0c08d8f4        0x0 D:/资料/工作资源/ARM7-SDK-2011-05-20/GNU/arm-elf/lib//libgcc.a(_fixunsdfsi.o)
 .glue_7t       0x0c08d8f4        0x0 D:/资料/工作资源/ARM7-SDK-2011-05-20/GNU/arm-elf/lib//libgcc.a(_truncdfsf2.o)
 .glue_7t       0x0c08d8f4        0x0 D:/资料/工作资源/ARM7-SDK-2011-05-20/GNU/arm-elf/lib//libc.a(lib_a-atol.o)
 .glue_7t       0x0c08d8f4        0x0 D:/资料/工作资源/ARM7-SDK-2011-05-20/GNU/arm-elf/lib//libc.a(lib_a-memcmp.o)
 .glue_7t       0x0c08d8f4        0x0 D:/资料/工作资源/ARM7-SDK-2011-05-20/GNU/arm-elf/lib//libc.a(lib_a-strcat.o)
 .glue_7t       0x0c08d8f4        0x0 D:/资料/工作资源/ARM7-SDK-2011-05-20/GNU/arm-elf/lib//libc.a(lib_a-strstr.o)
 .glue_7t       0x0c08d8f4        0x0 D:/资料/工作资源/ARM7-SDK-2011-05-20/GNU/arm-elf/lib//libm.a(lib_a-w_pow.o)
 .glue_7t       0x0c08d8f4        0x0 D:/资料/工作资源/ARM7-SDK-2011-05-20/GNU/arm-elf/lib//libm.a(lib_a-e_pow.o)
 .glue_7t       0x0c08d8f4        0x0 D:/资料/工作资源/ARM7-SDK-2011-05-20/GNU/arm-elf/lib//libm.a(lib_a-e_sqrt.o)
 .glue_7t       0x0c08d8f4        0x0 D:/资料/工作资源/ARM7-SDK-2011-05-20/GNU/arm-elf/lib//libm.a(lib_a-s_fabs.o)
 .glue_7t       0x0c08d8f4        0x0 D:/资料/工作资源/ARM7-SDK-2011-05-20/GNU/arm-elf/lib//libm.a(lib_a-s_finite.o)
 .glue_7t       0x0c08d8f4        0x0 D:/资料/工作资源/ARM7-SDK-2011-05-20/GNU/arm-elf/lib//libm.a(lib_a-s_lib_ver.o)
 .glue_7t       0x0c08d8f4        0x0 D:/资料/工作资源/ARM7-SDK-2011-05-20/GNU/arm-elf/lib//libm.a(lib_a-s_matherr.o)
 .glue_7t       0x0c08d8f4        0x0 D:/资料/工作资源/ARM7-SDK-2011-05-20/GNU/arm-elf/lib//libm.a(lib_a-s_rint.o)
 .glue_7t       0x0c08d8f4        0x0 D:/资料/工作资源/ARM7-SDK-2011-05-20/GNU/arm-elf/lib//libm.a(lib_a-s_scalbn.o)
 .glue_7t       0x0c08d8f4        0x0 D:/资料/工作资源/ARM7-SDK-2011-05-20/GNU/arm-elf/lib//libm.a(lib_a-s_copysign.o)
 .glue_7t       0x0c08d8f4        0x0 D:/资料/工作资源/ARM7-SDK-2011-05-20/GNU/arm-elf/lib//libc.a(lib_a-errno.o)
 *(.glue_7)
 .glue_7        0x0c08d8f4        0x0 D:/项目文件夹/WiFi_Demo/Release/crt0.o
 .glue_7        0x0c08d8f4        0x0 D:/项目文件夹/WiFi_Demo/Release/WiFi_Demo.o
 .glue_7        0x0c08d8f4        0x0 D:/项目文件夹/WiFi_Demo/Release/d_upload.o
 .glue_7        0x0c08d8f4        0x0 D:/项目文件夹/WiFi_Demo/Release/fun.o
 .glue_7        0x0c08d8f4        0x0 D:/项目文件夹/WiFi_Demo/Release/macset.o
 .glue_7        0x0c08d8f4        0x0 D:/项目文件夹/WiFi_Demo/Release/vst_db.o
 .glue_7        0x0c08d8f4        0x0 D:/项目文件夹/WiFi_Demo/Release/wifi_con.o
 .glue_7        0x0c08d8f4        0x0 D:/项目文件夹/WiFi_Demo/Release/eeprom.o
 .glue_7        0x0c08d8f4        0x0 D:/项目文件夹/WiFi_Demo/Release/mifare.o
 .glue_7        0x0c08d8f4        0x0 D:/项目文件夹/WiFi_Demo/Release/cal_key.o
 .glue_7        0x0c08d8f4        0x0 D:/项目文件夹/WiFi_Demo/Release/usbprog.o
 .glue_7        0x0c08d8f4        0x0 D:/项目文件夹/WiFi_Demo/Release/db.o
 .glue_7        0x0c08d8f4        0x0 D:/项目文件夹/WiFi_Demo/Release/iso8583.o
 .glue_7        0x0c08d8f4        0x0 D:/项目文件夹/WiFi_Demo/Release/cpu_card.o
 .glue_7        0x0c08d8f4        0x0 D:/资料/工作资源/ARM7-SDK-2011-05-20/GNU/arm-elf/lib//libc.a(lib_a-fprintf.o)
 .glue_7        0x0c08d8f4        0x0 D:/资料/工作资源/ARM7-SDK-2011-05-20/GNU/arm-elf/lib//libc.a(lib_a-memcpy.o)
 .glue_7        0x0c08d8f4        0x0 D:/资料/工作资源/ARM7-SDK-2011-05-20/GNU/arm-elf/lib//libc.a(lib_a-memset.o)
 .glue_7        0x0c08d8f4        0x0 D:/资料/工作资源/ARM7-SDK-2011-05-20/GNU/arm-elf/lib//libc.a(lib_a-sprintf.o)
 .glue_7        0x0c08d8f4        0x0 D:/资料/工作资源/ARM7-SDK-2011-05-20/GNU/arm-elf/lib//libc.a(lib_a-sscanf.o)
 .glue_7        0x0c08d8f4        0x0 D:/资料/工作资源/ARM7-SDK-2011-05-20/GNU/arm-elf/lib//libc.a(lib_a-strcpy.o)
 .glue_7        0x0c08d8f4        0x0 D:/资料/工作资源/ARM7-SDK-2011-05-20/GNU/arm-elf/lib//libc.a(lib_a-strlen.o)
 .glue_7        0x0c08d8f4        0x0 D:/资料/工作资源/ARM7-SDK-2011-05-20/GNU/arm-elf/lib//libc.a(lib_a-strncmp.o)
 .glue_7        0x0c08d8f4        0x0 D:/资料/工作资源/ARM7-SDK-2011-05-20/GNU/arm-elf/lib//libc.a(lib_a-strncpy.o)
 .glue_7        0x0c08d8f4        0x0 D:/资料/工作资源/ARM7-SDK-2011-05-20/GNU/arm-elf/lib//libc.a(lib_a-strtoul.o)
 .glue_7        0x0c08d8f4        0x0 D:/资料/工作资源/ARM7-SDK-2011-05-20/GNU/arm-elf/lib//libc.a(lib_a-vfprintf.o)
 .glue_7        0x0c08d8f4        0x0 D:/资料/工作资源/ARM7-SDK-2011-05-20/GNU/arm-elf/lib//libc.a(lib_a-vfscanf.o)
 .glue_7        0x0c08d8f4        0x0 D:/资料/工作资源/ARM7-SDK-2011-05-20/GNU/arm-elf/lib//libc.a(lib_a-wcrtomb.o)
 .glue_7        0x0c08d8f4        0x0 D:/资料/工作资源/ARM7-SDK-2011-05-20/GNU/arm-elf/lib//libc.a(lib_a-wcsrtombs.o)
 .glue_7        0x0c08d8f4        0x0 D:/资料/工作资源/ARM7-SDK-2011-05-20/GNU/arm-elf/lib//libc.a(lib_a-wctomb_r.o)
 .glue_7        0x0c08d8f4        0x0 D:/资料/工作资源/ARM7-SDK-2011-05-20/GNU/arm-elf/lib//libc.a(lib_a-wsetup.o)
 .glue_7        0x0c08d8f4        0x0 D:/资料/工作资源/ARM7-SDK-2011-05-20/GNU/arm-elf/lib//libc.a(lib_a-ctype_.o)
 .glue_7        0x0c08d8f4        0x0 D:/资料/工作资源/ARM7-SDK-2011-05-20/GNU/arm-elf/lib//libc.a(lib_a-dtoa.o)
 .glue_7        0x0c08d8f4        0x0 D:/资料/工作资源/ARM7-SDK-2011-05-20/GNU/arm-elf/lib//libc.a(lib_a-fflush.o)
 .glue_7        0x0c08d8f4        0x0 D:/资料/工作资源/ARM7-SDK-2011-05-20/GNU/arm-elf/lib//libc.a(lib_a-findfp.o)
 .glue_7        0x0c08d8f4        0x0 D:/资料/工作资源/ARM7-SDK-2011-05-20/GNU/arm-elf/lib//libc.a(lib_a-fread.o)
 .glue_7        0x0c08d8f4        0x0 D:/资料/工作资源/ARM7-SDK-2011-05-20/GNU/arm-elf/lib//libc.a(lib_a-freer.o)
 .glue_7        0x0c08d8f4        0x0 D:/资料/工作资源/ARM7-SDK-2011-05-20/GNU/arm-elf/lib//libc.a(lib_a-fvwrite.o)
 .glue_7        0x0c08d8f4        0x0 D:/资料/工作资源/ARM7-SDK-2011-05-20/GNU/arm-elf/lib//libc.a(lib_a-fwalk.o)
 .glue_7        0x0c08d8f4        0x0 D:/资料/工作资源/ARM7-SDK-2011-05-20/GNU/arm-elf/lib//libc.a(lib_a-impure.o)
 .glue_7        0x0c08d8f4        0x0 D:/资料/工作资源/ARM7-SDK-2011-05-20/GNU/arm-elf/lib//libc.a(lib_a-iswspace.o)
 .glue_7        0x0c08d8f4        0x0 D:/资料/工作资源/ARM7-SDK-2011-05-20/GNU/arm-elf/lib//libc.a(lib_a-locale.o)
 .glue_7        0x0c08d8f4        0x0 D:/资料/工作资源/ARM7-SDK-2011-05-20/GNU/arm-elf/lib//libc.a(lib_a-makebuf.o)
 .glue_7        0x0c08d8f4        0x0 D:/资料/工作资源/ARM7-SDK-2011-05-20/GNU/arm-elf/lib//libc.a(lib_a-mallocr.o)
 .glue_7        0x0c08d8f4        0x0 D:/资料/工作资源/ARM7-SDK-2011-05-20/GNU/arm-elf/lib//libc.a(lib_a-mbrtowc.o)
 .glue_7        0x0c08d8f4        0x0 D:/资料/工作资源/ARM7-SDK-2011-05-20/GNU/arm-elf/lib//libc.a(lib_a-mbtowc_r.o)
 .glue_7        0x0c08d8f4        0x0 D:/资料/工作资源/ARM7-SDK-2011-05-20/GNU/arm-elf/lib//libc.a(lib_a-memchr.o)
 .glue_7        0x0c08d8f4        0x0 D:/资料/工作资源/ARM7-SDK-2011-05-20/GNU/arm-elf/lib//libc.a(lib_a-memmove.o)
 .glue_7        0x0c08d8f4        0x0 D:/资料/工作资源/ARM7-SDK-2011-05-20/GNU/arm-elf/lib//libc.a(lib_a-mlock.o)
 .glue_7        0x0c08d8f4        0x0 D:/资料/工作资源/ARM7-SDK-2011-05-20/GNU/arm-elf/lib//libc.a(lib_a-mprec.o)
 .glue_7        0x0c08d8f4        0x0 D:/资料/工作资源/ARM7-SDK-2011-05-20/GNU/arm-elf/lib//libc.a(lib_a-reallocr.o)
 .glue_7        0x0c08d8f4        0x0 D:/资料/工作资源/ARM7-SDK-2011-05-20/GNU/arm-elf/lib//libc.a(lib_a-refill.o)
 .glue_7        0x0c08d8f4        0x0 D:/资料/工作资源/ARM7-SDK-2011-05-20/GNU/arm-elf/lib//libc.a(lib_a-s_isinfd.o)
 .glue_7        0x0c08d8f4        0x0 D:/资料/工作资源/ARM7-SDK-2011-05-20/GNU/arm-elf/lib//libc.a(lib_a-s_isnand.o)
 .glue_7        0x0c08d8f4        0x0 D:/资料/工作资源/ARM7-SDK-2011-05-20/GNU/arm-elf/lib//libc.a(lib_a-sccl.o)
 .glue_7        0x0c08d8f4        0x0 D:/资料/工作资源/ARM7-SDK-2011-05-20/GNU/arm-elf/lib//libc.a(lib_a-sf_nan.o)
 .glue_7        0x0c08d8f4        0x0 D:/资料/工作资源/ARM7-SDK-2011-05-20/GNU/arm-elf/lib//libc.a(lib_a-stdio.o)
 .glue_7        0x0c08d8f4        0x0 D:/资料/工作资源/ARM7-SDK-2011-05-20/GNU/arm-elf/lib//libc.a(lib_a-strcmp.o)
 .glue_7        0x0c08d8f4        0x0 D:/资料/工作资源/ARM7-SDK-2011-05-20/GNU/arm-elf/lib//libc.a(lib_a-strtod.o)
 .glue_7        0x0c08d8f4        0x0 D:/资料/工作资源/ARM7-SDK-2011-05-20/GNU/arm-elf/lib//libc.a(lib_a-strtol.o)
 .glue_7        0x0c08d8f4        0x0 D:/资料/工作资源/ARM7-SDK-2011-05-20/GNU/arm-elf/lib//libc.a(lib_a-ungetc.o)
 .glue_7        0x0c08d8f4        0x0 D:/资料/工作资源/ARM7-SDK-2011-05-20/GNU/arm-elf/lib//libc.a(lib_a-callocr.o)
 .glue_7        0x0c08d8f4        0x0 D:/资料/工作资源/ARM7-SDK-2011-05-20/GNU/arm-elf/lib//libc.a(lib_a-fclose.o)
 .glue_7        0x0c08d8f4        0x0 D:/资料/工作资源/ARM7-SDK-2011-05-20/GNU/arm-elf/lib//libc.a(lib_a-gdtoa-gethex.o)
 .glue_7        0x0c08d8f4        0x0 D:/资料/工作资源/ARM7-SDK-2011-05-20/GNU/arm-elf/lib//libc.a(lib_a-gdtoa-hexnan.o)
 .glue_7        0x0c08d8f4        0x0 D:/资料/工作资源/ARM7-SDK-2011-05-20/HHFiles/lib//libARMPos.a(libARMPos.o)
 .glue_7        0x0c08d8f4        0x0 D:/资料/工作资源/ARM7-SDK-2011-05-20/HHFiles/lib//libARMPos.a(call_api.o)
 .glue_7        0x0c08d8f4        0x0 D:/资料/工作资源/ARM7-SDK-2011-05-20/HHFiles/lib//libcard.a(libcard.o)
 .glue_7        0x0c08d8f4        0x0 D:/资料/工作资源/ARM7-SDK-2011-05-20/HHFiles/lib//libcard.a(cpucard.o)
 .glue_7        0x0c08d8f4        0x0 D:/资料/工作资源/ARM7-SDK-2011-05-20/HHFiles/lib//libcontactless.a(iso14443.o)
 .glue_7        0x0c08d8f4        0x0 D:/资料/工作资源/ARM7-SDK-2011-05-20/HHFiles/lib//libcontactless.a(mifare.o)
 .glue_7        0x0c08d8f4        0x0 D:/资料/工作资源/ARM7-SDK-2011-05-20/HHFiles/lib//libcontactless.a(port.o)
 .glue_7        0x0c08d8f4        0x0 D:/资料/工作资源/ARM7-SDK-2011-05-20/HHFiles/lib//libcontactless.a(rcxcomm.o)
 .glue_7        0x0c08d8f4        0x0 D:/资料/工作资源/ARM7-SDK-2011-05-20/HHFiles/lib//libcontactless.a(rcxreg.o)
 .glue_7        0x0c08d8f4        0x0 D:/资料/工作资源/ARM7-SDK-2011-05-20/HHFiles/lib//libext.a(exlib.o)
 .glue_7        0x0c08d8f4        0x0 D:/资料/工作资源/ARM7-SDK-2011-05-20/HHFiles/lib//libext.a(exlib_pinyin.o)
 .glue_7        0x0c08d8f4        0x0 D:/资料/工作资源/ARM7-SDK-2011-05-20/HHFiles/lib//libWiFi.a(libWiFi.o)
 .glue_7        0x0c08d8f4        0x0 D:/资料/工作资源/ARM7-SDK-2011-05-20/HHFiles/lib//libWiFi.a(CNaNoWiFi.o)
 .glue_7        0x0c08d8f4        0x0 D:/资料/工作资源/ARM7-SDK-2011-05-20/HHFiles/lib//libWiFi.a(Analyse_0.o)
 .glue_7        0x0c08d8f4        0x0 D:/资料/工作资源/ARM7-SDK-2011-05-20/HHFiles/lib//libWiFi.a(WiFiPubFuncs.o)
 .glue_7        0x0c08d8f4        0x0 D:/资料/工作资源/ARM7-SDK-2011-05-20/HHFiles/lib//libWiFi.a(ARML.o)
 .glue_7        0x0c08d8f4        0x0 D:/资料/工作资源/ARM7-SDK-2011-05-20/HHFiles/lib//libWiFi.a(PhyL.o)
 .glue_7        0x0c08d8f4        0x0 D:/资料/工作资源/ARM7-SDK-2011-05-20/HHFiles/lib//libdb.a(database.o)
 .glue_7        0x0c08d8f4        0x0 D:/资料/工作资源/ARM7-SDK-2011-05-20/HHFiles/lib//libusb.a(D12ci.o)
 .glue_7        0x0c08d8f4        0x0 D:/资料/工作资源/ARM7-SDK-2011-05-20/HHFiles/lib//libusb.a(D12Driver.o)
 .glue_7        0x0c08d8f4        0x0 D:/资料/工作资源/ARM7-SDK-2011-05-20/HHFiles/lib//libusb.a(D12hal.o)
 .glue_7        0x0c08d8f4        0x0 D:/资料/工作资源/ARM7-SDK-2011-05-20/HHFiles/lib//libusb.a(Chap_9.o)
 .glue_7        0x0c08d8f4        0x0 D:/资料/工作资源/ARM7-SDK-2011-05-20/HHFiles/lib//libusb.a(Descriptor.o)
 .glue_7        0x0c08d8f4        0x0 D:/资料/工作资源/ARM7-SDK-2011-05-20/GNU/arm-elf/lib//libgcc.a(_udivsi3.o)
 .glue_7        0x0c08d8f4        0x0 D:/资料/工作资源/ARM7-SDK-2011-05-20/GNU/arm-elf/lib//libgcc.a(_divsi3.o)
 .glue_7        0x0c08d8f4        0x0 D:/资料/工作资源/ARM7-SDK-2011-05-20/GNU/arm-elf/lib//libgcc.a(_umodsi3.o)
 .glue_7        0x0c08d8f4        0x0 D:/资料/工作资源/ARM7-SDK-2011-05-20/GNU/arm-elf/lib//libgcc.a(_modsi3.o)
 .glue_7        0x0c08d8f4        0x0 D:/资料/工作资源/ARM7-SDK-2011-05-20/GNU/arm-elf/lib//libgcc.a(_dvmd_tls.o)
 .glue_7        0x0c08d8f4        0x0 D:/资料/工作资源/ARM7-SDK-2011-05-20/GNU/arm-elf/lib//libgcc.a(_addsubdf3.o)
 .glue_7        0x0c08d8f4        0x0 D:/资料/工作资源/ARM7-SDK-2011-05-20/GNU/arm-elf/lib//libgcc.a(_muldivdf3.o)
 .glue_7        0x0c08d8f4        0x0 D:/资料/工作资源/ARM7-SDK-2011-05-20/GNU/arm-elf/lib//libgcc.a(_cmpdf2.o)
 .glue_7        0x0c08d8f4        0x0 D:/资料/工作资源/ARM7-SDK-2011-05-20/GNU/arm-elf/lib//libgcc.a(_fixdfsi.o)
 .glue_7        0x0c08d8f4        0x0 D:/资料/工作资源/ARM7-SDK-2011-05-20/GNU/arm-elf/lib//libgcc.a(_fixunsdfsi.o)
 .glue_7        0x0c08d8f4        0x0 D:/资料/工作资源/ARM7-SDK-2011-05-20/GNU/arm-elf/lib//libgcc.a(_truncdfsf2.o)
 .glue_7        0x0c08d8f4        0x0 D:/资料/工作资源/ARM7-SDK-2011-05-20/GNU/arm-elf/lib//libc.a(lib_a-atol.o)
 .glue_7        0x0c08d8f4        0x0 D:/资料/工作资源/ARM7-SDK-2011-05-20/GNU/arm-elf/lib//libc.a(lib_a-memcmp.o)
 .glue_7        0x0c08d8f4        0x0 D:/资料/工作资源/ARM7-SDK-2011-05-20/GNU/arm-elf/lib//libc.a(lib_a-strcat.o)
 .glue_7        0x0c08d8f4        0x0 D:/资料/工作资源/ARM7-SDK-2011-05-20/GNU/arm-elf/lib//libc.a(lib_a-strstr.o)
 .glue_7        0x0c08d8f4        0x0 D:/资料/工作资源/ARM7-SDK-2011-05-20/GNU/arm-elf/lib//libm.a(lib_a-w_pow.o)
 .glue_7        0x0c08d8f4        0x0 D:/资料/工作资源/ARM7-SDK-2011-05-20/GNU/arm-elf/lib//libm.a(lib_a-e_pow.o)
 .glue_7        0x0c08d8f4        0x0 D:/资料/工作资源/ARM7-SDK-2011-05-20/GNU/arm-elf/lib//libm.a(lib_a-e_sqrt.o)
 .glue_7        0x0c08d8f4        0x0 D:/资料/工作资源/ARM7-SDK-2011-05-20/GNU/arm-elf/lib//libm.a(lib_a-s_fabs.o)
 .glue_7        0x0c08d8f4        0x0 D:/资料/工作资源/ARM7-SDK-2011-05-20/GNU/arm-elf/lib//libm.a(lib_a-s_finite.o)
 .glue_7        0x0c08d8f4        0x0 D:/资料/工作资源/ARM7-SDK-2011-05-20/GNU/arm-elf/lib//libm.a(lib_a-s_lib_ver.o)
 .glue_7        0x0c08d8f4        0x0 D:/资料/工作资源/ARM7-SDK-2011-05-20/GNU/arm-elf/lib//libm.a(lib_a-s_matherr.o)
 .glue_7        0x0c08d8f4        0x0 D:/资料/工作资源/ARM7-SDK-2011-05-20/GNU/arm-elf/lib//libm.a(lib_a-s_rint.o)
 .glue_7        0x0c08d8f4        0x0 D:/资料/工作资源/ARM7-SDK-2011-05-20/GNU/arm-elf/lib//libm.a(lib_a-s_scalbn.o)
 .glue_7        0x0c08d8f4        0x0 D:/资料/工作资源/ARM7-SDK-2011-05-20/GNU/arm-elf/lib//libm.a(lib_a-s_copysign.o)
 .glue_7        0x0c08d8f4        0x0 D:/资料/工作资源/ARM7-SDK-2011-05-20/GNU/arm-elf/lib//libc.a(lib_a-errno.o)
                0x0c08d8f4                . = ALIGN (0x4)
                0x0c08d8f4                _etext = .

.vfp11_veneer   0x00000000        0x0
 .vfp11_veneer  0x00000000        0x0 D:/项目文件夹/WiFi_Demo/Release/crt0.o
 .vfp11_veneer  0x00000000        0x0 D:/项目文件夹/WiFi_Demo/Release/WiFi_Demo.o
 .vfp11_veneer  0x00000000        0x0 D:/项目文件夹/WiFi_Demo/Release/d_upload.o
 .vfp11_veneer  0x00000000        0x0 D:/项目文件夹/WiFi_Demo/Release/fun.o
 .vfp11_veneer  0x00000000        0x0 D:/项目文件夹/WiFi_Demo/Release/macset.o
 .vfp11_veneer  0x00000000        0x0 D:/项目文件夹/WiFi_Demo/Release/vst_db.o
 .vfp11_veneer  0x00000000        0x0 D:/项目文件夹/WiFi_Demo/Release/wifi_con.o
 .vfp11_veneer  0x00000000        0x0 D:/项目文件夹/WiFi_Demo/Release/eeprom.o
 .vfp11_veneer  0x00000000        0x0 D:/项目文件夹/WiFi_Demo/Release/mifare.o
 .vfp11_veneer  0x00000000        0x0 D:/项目文件夹/WiFi_Demo/Release/cal_key.o
 .vfp11_veneer  0x00000000        0x0 D:/项目文件夹/WiFi_Demo/Release/usbprog.o
 .vfp11_veneer  0x00000000        0x0 D:/项目文件夹/WiFi_Demo/Release/db.o
 .vfp11_veneer  0x00000000        0x0 D:/项目文件夹/WiFi_Demo/Release/iso8583.o
 .vfp11_veneer  0x00000000        0x0 D:/项目文件夹/WiFi_Demo/Release/cpu_card.o
 .vfp11_veneer  0x00000000        0x0 D:/资料/工作资源/ARM7-SDK-2011-05-20/GNU/arm-elf/lib//libc.a(lib_a-fprintf.o)
 .vfp11_veneer  0x00000000        0x0 D:/资料/工作资源/ARM7-SDK-2011-05-20/GNU/arm-elf/lib//libc.a(lib_a-memcpy.o)
 .vfp11_veneer  0x00000000        0x0 D:/资料/工作资源/ARM7-SDK-2011-05-20/GNU/arm-elf/lib//libc.a(lib_a-memset.o)
 .vfp11_veneer  0x00000000        0x0 D:/资料/工作资源/ARM7-SDK-2011-05-20/GNU/arm-elf/lib//libc.a(lib_a-sprintf.o)
 .vfp11_veneer  0x00000000        0x0 D:/资料/工作资源/ARM7-SDK-2011-05-20/GNU/arm-elf/lib//libc.a(lib_a-sscanf.o)
 .vfp11_veneer  0x00000000        0x0 D:/资料/工作资源/ARM7-SDK-2011-05-20/GNU/arm-elf/lib//libc.a(lib_a-strcpy.o)
 .vfp11_veneer  0x00000000        0x0 D:/资料/工作资源/ARM7-SDK-2011-05-20/GNU/arm-elf/lib//libc.a(lib_a-strlen.o)
 .vfp11_veneer  0x00000000        0x0 D:/资料/工作资源/ARM7-SDK-2011-05-20/GNU/arm-elf/lib//libc.a(lib_a-strncmp.o)
 .vfp11_veneer  0x00000000        0x0 D:/资料/工作资源/ARM7-SDK-2011-05-20/GNU/arm-elf/lib//libc.a(lib_a-strncpy.o)
 .vfp11_veneer  0x00000000        0x0 D:/资料/工作资源/ARM7-SDK-2011-05-20/GNU/arm-elf/lib//libc.a(lib_a-strtoul.o)
 .vfp11_veneer  0x00000000        0x0 D:/资料/工作资源/ARM7-SDK-2011-05-20/GNU/arm-elf/lib//libc.a(lib_a-vfprintf.o)
 .vfp11_veneer  0x00000000        0x0 D:/资料/工作资源/ARM7-SDK-2011-05-20/GNU/arm-elf/lib//libc.a(lib_a-vfscanf.o)
 .vfp11_veneer  0x00000000        0x0 D:/资料/工作资源/ARM7-SDK-2011-05-20/GNU/arm-elf/lib//libc.a(lib_a-wcrtomb.o)
 .vfp11_veneer  0x00000000        0x0 D:/资料/工作资源/ARM7-SDK-2011-05-20/GNU/arm-elf/lib//libc.a(lib_a-wcsrtombs.o)
 .vfp11_veneer  0x00000000        0x0 D:/资料/工作资源/ARM7-SDK-2011-05-20/GNU/arm-elf/lib//libc.a(lib_a-wctomb_r.o)
 .vfp11_veneer  0x00000000        0x0 D:/资料/工作资源/ARM7-SDK-2011-05-20/GNU/arm-elf/lib//libc.a(lib_a-wsetup.o)
 .vfp11_veneer  0x00000000        0x0 D:/资料/工作资源/ARM7-SDK-2011-05-20/GNU/arm-elf/lib//libc.a(lib_a-ctype_.o)
 .vfp11_veneer  0x00000000        0x0 D:/资料/工作资源/ARM7-SDK-2011-05-20/GNU/arm-elf/lib//libc.a(lib_a-dtoa.o)
 .vfp11_veneer  0x00000000        0x0 D:/资料/工作资源/ARM7-SDK-2011-05-20/GNU/arm-elf/lib//libc.a(lib_a-fflush.o)
 .vfp11_veneer  0x00000000        0x0 D:/资料/工作资源/ARM7-SDK-2011-05-20/GNU/arm-elf/lib//libc.a(lib_a-findfp.o)
 .vfp11_veneer  0x00000000        0x0 D:/资料/工作资源/ARM7-SDK-2011-05-20/GNU/arm-elf/lib//libc.a(lib_a-fread.o)
 .vfp11_veneer  0x00000000        0x0 D:/资料/工作资源/ARM7-SDK-2011-05-20/GNU/arm-elf/lib//libc.a(lib_a-freer.o)
 .vfp11_veneer  0x00000000        0x0 D:/资料/工作资源/ARM7-SDK-2011-05-20/GNU/arm-elf/lib//libc.a(lib_a-fvwrite.o)
 .vfp11_veneer  0x00000000        0x0 D:/资料/工作资源/ARM7-SDK-2011-05-20/GNU/arm-elf/lib//libc.a(lib_a-fwalk.o)
 .vfp11_veneer  0x00000000        0x0 D:/资料/工作资源/ARM7-SDK-2011-05-20/GNU/arm-elf/lib//libc.a(lib_a-impure.o)
 .vfp11_veneer  0x00000000        0x0 D:/资料/工作资源/ARM7-SDK-2011-05-20/GNU/arm-elf/lib//libc.a(lib_a-iswspace.o)
 .vfp11_veneer  0x00000000        0x0 D:/资料/工作资源/ARM7-SDK-2011-05-20/GNU/arm-elf/lib//libc.a(lib_a-locale.o)
 .vfp11_veneer  0x00000000        0x0 D:/资料/工作资源/ARM7-SDK-2011-05-20/GNU/arm-elf/lib//libc.a(lib_a-makebuf.o)
 .vfp11_veneer  0x00000000        0x0 D:/资料/工作资源/ARM7-SDK-2011-05-20/GNU/arm-elf/lib//libc.a(lib_a-mallocr.o)
 .vfp11_veneer  0x00000000        0x0 D:/资料/工作资源/ARM7-SDK-2011-05-20/GNU/arm-elf/lib//libc.a(lib_a-mbrtowc.o)
 .vfp11_veneer  0x00000000        0x0 D:/资料/工作资源/ARM7-SDK-2011-05-20/GNU/arm-elf/lib//libc.a(lib_a-mbtowc_r.o)
 .vfp11_veneer  0x00000000        0x0 D:/资料/工作资源/ARM7-SDK-2011-05-20/GNU/arm-elf/lib//libc.a(lib_a-memchr.o)
 .vfp11_veneer  0x00000000        0x0 D:/资料/工作资源/ARM7-SDK-2011-05-20/GNU/arm-elf/lib//libc.a(lib_a-memmove.o)
 .vfp11_veneer  0x00000000        0x0 D:/资料/工作资源/ARM7-SDK-2011-05-20/GNU/arm-elf/lib//libc.a(lib_a-mlock.o)
 .vfp11_veneer  0x00000000        0x0 D:/资料/工作资源/ARM7-SDK-2011-05-20/GNU/arm-elf/lib//libc.a(lib_a-mprec.o)
 .vfp11_veneer  0x00000000        0x0 D:/资料/工作资源/ARM7-SDK-2011-05-20/GNU/arm-elf/lib//libc.a(lib_a-reallocr.o)
 .vfp11_veneer  0x00000000        0x0 D:/资料/工作资源/ARM7-SDK-2011-05-20/GNU/arm-elf/lib//libc.a(lib_a-refill.o)
 .vfp11_veneer  0x00000000        0x0 D:/资料/工作资源/ARM7-SDK-2011-05-20/GNU/arm-elf/lib//libc.a(lib_a-s_isinfd.o)
 .vfp11_veneer  0x00000000        0x0 D:/资料/工作资源/ARM7-SDK-2011-05-20/GNU/arm-elf/lib//libc.a(lib_a-s_isnand.o)
 .vfp11_veneer  0x00000000        0x0 D:/资料/工作资源/ARM7-SDK-2011-05-20/GNU/arm-elf/lib//libc.a(lib_a-sccl.o)
 .vfp11_veneer  0x00000000        0x0 D:/资料/工作资源/ARM7-SDK-2011-05-20/GNU/arm-elf/lib//libc.a(lib_a-sf_nan.o)
 .vfp11_veneer  0x00000000        0x0 D:/资料/工作资源/ARM7-SDK-2011-05-20/GNU/arm-elf/lib//libc.a(lib_a-stdio.o)
 .vfp11_veneer  0x00000000        0x0 D:/资料/工作资源/ARM7-SDK-2011-05-20/GNU/arm-elf/lib//libc.a(lib_a-strcmp.o)
 .vfp11_veneer  0x00000000        0x0 D:/资料/工作资源/ARM7-SDK-2011-05-20/GNU/arm-elf/lib//libc.a(lib_a-strtod.o)
 .vfp11_veneer  0x00000000        0x0 D:/资料/工作资源/ARM7-SDK-2011-05-20/GNU/arm-elf/lib//libc.a(lib_a-strtol.o)
 .vfp11_veneer  0x00000000        0x0 D:/资料/工作资源/ARM7-SDK-2011-05-20/GNU/arm-elf/lib//libc.a(lib_a-ungetc.o)
 .vfp11_veneer  0x00000000        0x0 D:/资料/工作资源/ARM7-SDK-2011-05-20/GNU/arm-elf/lib//libc.a(lib_a-callocr.o)
 .vfp11_veneer  0x00000000        0x0 D:/资料/工作资源/ARM7-SDK-2011-05-20/GNU/arm-elf/lib//libc.a(lib_a-fclose.o)
 .vfp11_veneer  0x00000000        0x0 D:/资料/工作资源/ARM7-SDK-2011-05-20/GNU/arm-elf/lib//libc.a(lib_a-gdtoa-gethex.o)
 .vfp11_veneer  0x00000000        0x0 D:/资料/工作资源/ARM7-SDK-2011-05-20/GNU/arm-elf/lib//libc.a(lib_a-gdtoa-hexnan.o)
 .vfp11_veneer  0x00000000        0x0 D:/资料/工作资源/ARM7-SDK-2011-05-20/HHFiles/lib//libARMPos.a(libARMPos.o)
 .vfp11_veneer  0x00000000        0x0 D:/资料/工作资源/ARM7-SDK-2011-05-20/HHFiles/lib//libARMPos.a(call_api.o)
 .vfp11_veneer  0x00000000        0x0 D:/资料/工作资源/ARM7-SDK-2011-05-20/HHFiles/lib//libcard.a(libcard.o)
 .vfp11_veneer  0x00000000        0x0 D:/资料/工作资源/ARM7-SDK-2011-05-20/HHFiles/lib//libcard.a(cpucard.o)
 .vfp11_veneer  0x00000000        0x0 D:/资料/工作资源/ARM7-SDK-2011-05-20/HHFiles/lib//libcontactless.a(iso14443.o)
 .vfp11_veneer  0x00000000        0x0 D:/资料/工作资源/ARM7-SDK-2011-05-20/HHFiles/lib//libcontactless.a(mifare.o)
 .vfp11_veneer  0x00000000        0x0 D:/资料/工作资源/ARM7-SDK-2011-05-20/HHFiles/lib//libcontactless.a(port.o)
 .vfp11_veneer  0x00000000        0x0 D:/资料/工作资源/ARM7-SDK-2011-05-20/HHFiles/lib//libcontactless.a(rcxcomm.o)
 .vfp11_veneer  0x00000000        0x0 D:/资料/工作资源/ARM7-SDK-2011-05-20/HHFiles/lib//libcontactless.a(rcxreg.o)
 .vfp11_veneer  0x00000000        0x0 D:/资料/工作资源/ARM7-SDK-2011-05-20/HHFiles/lib//libext.a(exlib.o)
 .vfp11_veneer  0x00000000        0x0 D:/资料/工作资源/ARM7-SDK-2011-05-20/HHFiles/lib//libext.a(exlib_pinyin.o)
 .vfp11_veneer  0x00000000        0x0 D:/资料/工作资源/ARM7-SDK-2011-05-20/HHFiles/lib//libWiFi.a(libWiFi.o)
 .vfp11_veneer  0x00000000        0x0 D:/资料/工作资源/ARM7-SDK-2011-05-20/HHFiles/lib//libWiFi.a(CNaNoWiFi.o)
 .vfp11_veneer  0x00000000        0x0 D:/资料/工作资源/ARM7-SDK-2011-05-20/HHFiles/lib//libWiFi.a(Analyse_0.o)
 .vfp11_veneer  0x00000000        0x0 D:/资料/工作资源/ARM7-SDK-2011-05-20/HHFiles/lib//libWiFi.a(WiFiPubFuncs.o)
 .vfp11_veneer  0x00000000        0x0 D:/资料/工作资源/ARM7-SDK-2011-05-20/HHFiles/lib//libWiFi.a(ARML.o)
 .vfp11_veneer  0x00000000        0x0 D:/资料/工作资源/ARM7-SDK-2011-05-20/HHFiles/lib//libWiFi.a(PhyL.o)
 .vfp11_veneer  0x00000000        0x0 D:/资料/工作资源/ARM7-SDK-2011-05-20/HHFiles/lib//libdb.a(database.o)
 .vfp11_veneer  0x00000000        0x0 D:/资料/工作资源/ARM7-SDK-2011-05-20/HHFiles/lib//libusb.a(D12ci.o)
 .vfp11_veneer  0x00000000        0x0 D:/资料/工作资源/ARM7-SDK-2011-05-20/HHFiles/lib//libusb.a(D12Driver.o)
 .vfp11_veneer  0x00000000        0x0 D:/资料/工作资源/ARM7-SDK-2011-05-20/HHFiles/lib//libusb.a(D12hal.o)
 .vfp11_veneer  0x00000000        0x0 D:/资料/工作资源/ARM7-SDK-2011-05-20/HHFiles/lib//libusb.a(Chap_9.o)
 .vfp11_veneer  0x00000000        0x0 D:/资料/工作资源/ARM7-SDK-2011-05-20/HHFiles/lib//libusb.a(Descriptor.o)
 .vfp11_veneer  0x00000000        0x0 D:/资料/工作资源/ARM7-SDK-2011-05-20/GNU/arm-elf/lib//libgcc.a(_udivsi3.o)
 .vfp11_veneer  0x00000000        0x0 D:/资料/工作资源/ARM7-SDK-2011-05-20/GNU/arm-elf/lib//libgcc.a(_divsi3.o)
 .vfp11_veneer  0x00000000        0x0 D:/资料/工作资源/ARM7-SDK-2011-05-20/GNU/arm-elf/lib//libgcc.a(_umodsi3.o)
 .vfp11_veneer  0x00000000        0x0 D:/资料/工作资源/ARM7-SDK-2011-05-20/GNU/arm-elf/lib//libgcc.a(_modsi3.o)
 .vfp11_veneer  0x00000000        0x0 D:/资料/工作资源/ARM7-SDK-2011-05-20/GNU/arm-elf/lib//libgcc.a(_dvmd_tls.o)
 .vfp11_veneer  0x00000000        0x0 D:/资料/工作资源/ARM7-SDK-2011-05-20/GNU/arm-elf/lib//libgcc.a(_addsubdf3.o)
 .vfp11_veneer  0x00000000        0x0 D:/资料/工作资源/ARM7-SDK-2011-05-20/GNU/arm-elf/lib//libgcc.a(_muldivdf3.o)
 .vfp11_veneer  0x00000000        0x0 D:/资料/工作资源/ARM7-SDK-2011-05-20/GNU/arm-elf/lib//libgcc.a(_cmpdf2.o)
 .vfp11_veneer  0x00000000        0x0 D:/资料/工作资源/ARM7-SDK-2011-05-20/GNU/arm-elf/lib//libgcc.a(_fixdfsi.o)
 .vfp11_veneer  0x00000000        0x0 D:/资料/工作资源/ARM7-SDK-2011-05-20/GNU/arm-elf/lib//libgcc.a(_fixunsdfsi.o)
 .vfp11_veneer  0x00000000        0x0 D:/资料/工作资源/ARM7-SDK-2011-05-20/GNU/arm-elf/lib//libgcc.a(_truncdfsf2.o)
 .vfp11_veneer  0x00000000        0x0 D:/资料/工作资源/ARM7-SDK-2011-05-20/GNU/arm-elf/lib//libc.a(lib_a-atol.o)
 .vfp11_veneer  0x00000000        0x0 D:/资料/工作资源/ARM7-SDK-2011-05-20/GNU/arm-elf/lib//libc.a(lib_a-memcmp.o)
 .vfp11_veneer  0x00000000        0x0 D:/资料/工作资源/ARM7-SDK-2011-05-20/GNU/arm-elf/lib//libc.a(lib_a-strcat.o)
 .vfp11_veneer  0x00000000        0x0 D:/资料/工作资源/ARM7-SDK-2011-05-20/GNU/arm-elf/lib//libc.a(lib_a-strstr.o)
 .vfp11_veneer  0x00000000        0x0 D:/资料/工作资源/ARM7-SDK-2011-05-20/GNU/arm-elf/lib//libm.a(lib_a-w_pow.o)
 .vfp11_veneer  0x00000000        0x0 D:/资料/工作资源/ARM7-SDK-2011-05-20/GNU/arm-elf/lib//libm.a(lib_a-e_pow.o)
 .vfp11_veneer  0x00000000        0x0 D:/资料/工作资源/ARM7-SDK-2011-05-20/GNU/arm-elf/lib//libm.a(lib_a-e_sqrt.o)
 .vfp11_veneer  0x00000000        0x0 D:/资料/工作资源/ARM7-SDK-2011-05-20/GNU/arm-elf/lib//libm.a(lib_a-s_fabs.o)
 .vfp11_veneer  0x00000000        0x0 D:/资料/工作资源/ARM7-SDK-2011-05-20/GNU/arm-elf/lib//libm.a(lib_a-s_finite.o)
 .vfp11_veneer  0x00000000        0x0 D:/资料/工作资源/ARM7-SDK-2011-05-20/GNU/arm-elf/lib//libm.a(lib_a-s_lib_ver.o)
 .vfp11_veneer  0x00000000        0x0 D:/资料/工作资源/ARM7-SDK-2011-05-20/GNU/arm-elf/lib//libm.a(lib_a-s_matherr.o)
 .vfp11_veneer  0x00000000        0x0 D:/资料/工作资源/ARM7-SDK-2011-05-20/GNU/arm-elf/lib//libm.a(lib_a-s_rint.o)
 .vfp11_veneer  0x00000000        0x0 D:/资料/工作资源/ARM7-SDK-2011-05-20/GNU/arm-elf/lib//libm.a(lib_a-s_scalbn.o)
 .vfp11_veneer  0x00000000        0x0 D:/资料/工作资源/ARM7-SDK-2011-05-20/GNU/arm-elf/lib//libm.a(lib_a-s_copysign.o)
 .vfp11_veneer  0x00000000        0x0 D:/资料/工作资源/ARM7-SDK-2011-05-20/GNU/arm-elf/lib//libc.a(lib_a-errno.o)

.data           0x0c08d8f8     0x7c50
                0x0c08d8f8                . = ALIGN (0x4)
                0x0c08d8f8                _data = .
 *(.data)
 .data          0x0c08d8f8        0xc D:/项目文件夹/WiFi_Demo/Release/crt0.o
                0x0c08d8f8                environ
                0x0c08d8fc                stack_ptr
                0x0c08d900                funcmain
 .data          0x0c08d904        0x0 D:/项目文件夹/WiFi_Demo/Release/WiFi_Demo.o
 .data          0x0c08d904        0x0 D:/项目文件夹/WiFi_Demo/Release/d_upload.o
 .data          0x0c08d904        0x0 D:/项目文件夹/WiFi_Demo/Release/fun.o
 .data          0x0c08d904        0x0 D:/项目文件夹/WiFi_Demo/Release/macset.o
 .data          0x0c08d904        0x0 D:/项目文件夹/WiFi_Demo/Release/vst_db.o
 .data          0x0c08d904        0x0 D:/项目文件夹/WiFi_Demo/Release/wifi_con.o
 .data          0x0c08d904        0x0 D:/项目文件夹/WiFi_Demo/Release/eeprom.o
 .data          0x0c08d904     0x12d0 D:/项目文件夹/WiFi_Demo/Release/mifare.o
                0x0c08d904                SchindlersList
 .data          0x0c08ebd4      0x350 D:/项目文件夹/WiFi_Demo/Release/cal_key.o
                0x0c08ec4f                IP1
                0x0c08ed02                select
                0x0c08ec0d                pc_2
                0x0c08ef03                signal
                0x0c08ecd1                enlage
                0x0c08ec3e                ls
                0x0c08ebd4                pc_1
                0x0c08ec90                IP_1
 .data          0x0c08ef24        0x0 D:/项目文件夹/WiFi_Demo/Release/usbprog.o
 .data          0x0c08ef24        0x8 D:/项目文件夹/WiFi_Demo/Release/db.o
                0x0c08ef26                g_rec_size
                0x0c08ef24                g_blocknum
                0x0c08ef28                g_strTableName
 .data          0x0c08ef2c        0x0 D:/项目文件夹/WiFi_Demo/Release/iso8583.o
 .data          0x0c08ef2c        0x0 D:/项目文件夹/WiFi_Demo/Release/cpu_card.o
 .data          0x0c08ef2c        0x0 D:/资料/工作资源/ARM7-SDK-2011-05-20/GNU/arm-elf/lib//libc.a(lib_a-fprintf.o)
 .data          0x0c08ef2c        0x0 D:/资料/工作资源/ARM7-SDK-2011-05-20/GNU/arm-elf/lib//libc.a(lib_a-memcpy.o)
 .data          0x0c08ef2c        0x0 D:/资料/工作资源/ARM7-SDK-2011-05-20/GNU/arm-elf/lib//libc.a(lib_a-memset.o)
 .data          0x0c08ef2c        0x0 D:/资料/工作资源/ARM7-SDK-2011-05-20/GNU/arm-elf/lib//libc.a(lib_a-sprintf.o)
 .data          0x0c08ef2c        0x0 D:/资料/工作资源/ARM7-SDK-2011-05-20/GNU/arm-elf/lib//libc.a(lib_a-sscanf.o)
 .data          0x0c08ef2c        0x0 D:/资料/工作资源/ARM7-SDK-2011-05-20/GNU/arm-elf/lib//libc.a(lib_a-strcpy.o)
 .data          0x0c08ef2c        0x0 D:/资料/工作资源/ARM7-SDK-2011-05-20/GNU/arm-elf/lib//libc.a(lib_a-strlen.o)
 .data          0x0c08ef2c        0x0 D:/资料/工作资源/ARM7-SDK-2011-05-20/GNU/arm-elf/lib//libc.a(lib_a-strncmp.o)
 .data          0x0c08ef2c        0x0 D:/资料/工作资源/ARM7-SDK-2011-05-20/GNU/arm-elf/lib//libc.a(lib_a-strncpy.o)
 .data          0x0c08ef2c        0x0 D:/资料/工作资源/ARM7-SDK-2011-05-20/GNU/arm-elf/lib//libc.a(lib_a-strtoul.o)
 .data          0x0c08ef2c        0x0 D:/资料/工作资源/ARM7-SDK-2011-05-20/GNU/arm-elf/lib//libc.a(lib_a-vfprintf.o)
 .data          0x0c08ef2c        0x0 D:/资料/工作资源/ARM7-SDK-2011-05-20/GNU/arm-elf/lib//libc.a(lib_a-vfscanf.o)
 .data          0x0c08ef2c        0x0 D:/资料/工作资源/ARM7-SDK-2011-05-20/GNU/arm-elf/lib//libc.a(lib_a-wcrtomb.o)
 .data          0x0c08ef2c        0x0 D:/资料/工作资源/ARM7-SDK-2011-05-20/GNU/arm-elf/lib//libc.a(lib_a-wcsrtombs.o)
 .data          0x0c08ef2c        0x0 D:/资料/工作资源/ARM7-SDK-2011-05-20/GNU/arm-elf/lib//libc.a(lib_a-wctomb_r.o)
 .data          0x0c08ef2c        0x0 D:/资料/工作资源/ARM7-SDK-2011-05-20/GNU/arm-elf/lib//libc.a(lib_a-wsetup.o)
 .data          0x0c08ef2c        0x4 D:/资料/工作资源/ARM7-SDK-2011-05-20/GNU/arm-elf/lib//libc.a(lib_a-ctype_.o)
                0x0c08ef2c                __ctype_ptr
 .data          0x0c08ef30        0x0 D:/资料/工作资源/ARM7-SDK-2011-05-20/GNU/arm-elf/lib//libc.a(lib_a-dtoa.o)
 .data          0x0c08ef30        0x0 D:/资料/工作资源/ARM7-SDK-2011-05-20/GNU/arm-elf/lib//libc.a(lib_a-fflush.o)
 .data          0x0c08ef30        0x0 D:/资料/工作资源/ARM7-SDK-2011-05-20/GNU/arm-elf/lib//libc.a(lib_a-findfp.o)
 .data          0x0c08ef30        0x0 D:/资料/工作资源/ARM7-SDK-2011-05-20/GNU/arm-elf/lib//libc.a(lib_a-fread.o)
 .data          0x0c08ef30        0x0 D:/资料/工作资源/ARM7-SDK-2011-05-20/GNU/arm-elf/lib//libc.a(lib_a-freer.o)
 .data          0x0c08ef30        0x0 D:/资料/工作资源/ARM7-SDK-2011-05-20/GNU/arm-elf/lib//libc.a(lib_a-fvwrite.o)
 .data          0x0c08ef30        0x0 D:/资料/工作资源/ARM7-SDK-2011-05-20/GNU/arm-elf/lib//libc.a(lib_a-fwalk.o)
 .data          0x0c08ef30      0x404 D:/资料/工作资源/ARM7-SDK-2011-05-20/GNU/arm-elf/lib//libc.a(lib_a-impure.o)
                0x0c08ef30                _impure_ptr
 .data          0x0c08f334        0x0 D:/资料/工作资源/ARM7-SDK-2011-05-20/GNU/arm-elf/lib//libc.a(lib_a-iswspace.o)
 .data          0x0c08f334       0x10 D:/资料/工作资源/ARM7-SDK-2011-05-20/GNU/arm-elf/lib//libc.a(lib_a-locale.o)
                0x0c08f334                __mb_cur_max
                0x0c08f338                __lc_ctype
 .data          0x0c08f344        0x0 D:/资料/工作资源/ARM7-SDK-2011-05-20/GNU/arm-elf/lib//libc.a(lib_a-makebuf.o)
 .data          0x0c08f344      0x410 D:/资料/工作资源/ARM7-SDK-2011-05-20/GNU/arm-elf/lib//libc.a(lib_a-mallocr.o)
                0x0c08f750                __malloc_sbrk_base
                0x0c08f344                __malloc_av_
                0x0c08f74c                __malloc_trim_threshold
 .data          0x0c08f754        0x0 D:/资料/工作资源/ARM7-SDK-2011-05-20/GNU/arm-elf/lib//libc.a(lib_a-mbrtowc.o)
 .data          0x0c08f754        0x0 D:/资料/工作资源/ARM7-SDK-2011-05-20/GNU/arm-elf/lib//libc.a(lib_a-mbtowc_r.o)
 .data          0x0c08f754        0x0 D:/资料/工作资源/ARM7-SDK-2011-05-20/GNU/arm-elf/lib//libc.a(lib_a-memchr.o)
 .data          0x0c08f754        0x0 D:/资料/工作资源/ARM7-SDK-2011-05-20/GNU/arm-elf/lib//libc.a(lib_a-memmove.o)
 .data          0x0c08f754        0x0 D:/资料/工作资源/ARM7-SDK-2011-05-20/GNU/arm-elf/lib//libc.a(lib_a-mlock.o)
 .data          0x0c08f754        0x0 D:/资料/工作资源/ARM7-SDK-2011-05-20/GNU/arm-elf/lib//libc.a(lib_a-mprec.o)
 .data          0x0c08f754        0x0 D:/资料/工作资源/ARM7-SDK-2011-05-20/GNU/arm-elf/lib//libc.a(lib_a-reallocr.o)
 .data          0x0c08f754        0x0 D:/资料/工作资源/ARM7-SDK-2011-05-20/GNU/arm-elf/lib//libc.a(lib_a-refill.o)
 .data          0x0c08f754        0x0 D:/资料/工作资源/ARM7-SDK-2011-05-20/GNU/arm-elf/lib//libc.a(lib_a-s_isinfd.o)
 .data          0x0c08f754        0x0 D:/资料/工作资源/ARM7-SDK-2011-05-20/GNU/arm-elf/lib//libc.a(lib_a-s_isnand.o)
 .data          0x0c08f754        0x0 D:/资料/工作资源/ARM7-SDK-2011-05-20/GNU/arm-elf/lib//libc.a(lib_a-sccl.o)
 .data          0x0c08f754        0x0 D:/资料/工作资源/ARM7-SDK-2011-05-20/GNU/arm-elf/lib//libc.a(lib_a-sf_nan.o)
 .data          0x0c08f754        0x0 D:/资料/工作资源/ARM7-SDK-2011-05-20/GNU/arm-elf/lib//libc.a(lib_a-stdio.o)
 .data          0x0c08f754        0x0 D:/资料/工作资源/ARM7-SDK-2011-05-20/GNU/arm-elf/lib//libc.a(lib_a-strcmp.o)
 .data          0x0c08f754       0x28 D:/资料/工作资源/ARM7-SDK-2011-05-20/GNU/arm-elf/lib//libc.a(lib_a-strtod.o)
 .data          0x0c08f77c        0x0 D:/资料/工作资源/ARM7-SDK-2011-05-20/GNU/arm-elf/lib//libc.a(lib_a-strtol.o)
 .data          0x0c08f77c        0x0 D:/资料/工作资源/ARM7-SDK-2011-05-20/GNU/arm-elf/lib//libc.a(lib_a-ungetc.o)
 .data          0x0c08f77c        0x0 D:/资料/工作资源/ARM7-SDK-2011-05-20/GNU/arm-elf/lib//libc.a(lib_a-callocr.o)
 .data          0x0c08f77c        0x0 D:/资料/工作资源/ARM7-SDK-2011-05-20/GNU/arm-elf/lib//libc.a(lib_a-fclose.o)
 .data          0x0c08f77c        0x0 D:/资料/工作资源/ARM7-SDK-2011-05-20/GNU/arm-elf/lib//libc.a(lib_a-gdtoa-gethex.o)
 .data          0x0c08f77c        0x0 D:/资料/工作资源/ARM7-SDK-2011-05-20/GNU/arm-elf/lib//libc.a(lib_a-gdtoa-hexnan.o)
 .data          0x0c08f77c        0x0 D:/资料/工作资源/ARM7-SDK-2011-05-20/HHFiles/lib//libARMPos.a(libARMPos.o)
 .data          0x0c08f77c        0x0 D:/资料/工作资源/ARM7-SDK-2011-05-20/HHFiles/lib//libARMPos.a(call_api.o)
 *fill*         0x0c08f77c        0x4 00
 .data          0x0c08f780       0x10 D:/资料/工作资源/ARM7-SDK-2011-05-20/HHFiles/lib//libcard.a(libcard.o)
                0x0c08f780                STATUS_REG_READ_WM
                0x0c08f782                IIC_CLK_WIDTH
 .data          0x0c08f790       0x7c D:/资料/工作资源/ARM7-SDK-2011-05-20/HHFiles/lib//libcard.a(cpucard.o)
                0x0c08f7d6                arr_FD_32
                0x0c08f790                arr_FD_31
 .data          0x0c08f80c        0x1 D:/资料/工作资源/ARM7-SDK-2011-05-20/HHFiles/lib//libcontactless.a(iso14443.o)
 .data          0x0c08f80d        0x0 D:/资料/工作资源/ARM7-SDK-2011-05-20/HHFiles/lib//libcontactless.a(mifare.o)
 .data          0x0c08f80d        0x0 D:/资料/工作资源/ARM7-SDK-2011-05-20/HHFiles/lib//libcontactless.a(port.o)
 .data          0x0c08f80d        0x0 D:/资料/工作资源/ARM7-SDK-2011-05-20/HHFiles/lib//libcontactless.a(rcxcomm.o)
 .data          0x0c08f80d        0x0 D:/资料/工作资源/ARM7-SDK-2011-05-20/HHFiles/lib//libcontactless.a(rcxreg.o)
 .data          0x0c08f80d        0x0 D:/资料/工作资源/ARM7-SDK-2011-05-20/HHFiles/lib//libext.a(exlib.o)
 *fill*         0x0c08f80d        0x3 00
 .data          0x0c08f810     0x5ce8 D:/资料/工作资源/ARM7-SDK-2011-05-20/HHFiles/lib//libext.a(exlib_pinyin.o)
                0x0c0932f0                PY_mb_tu
                0x0c091580                PY_mb_ka
                0x0c090090                PY_mb_chui
                0x0c092b08                PY_mb_san
                0x0c090da4                PY_mb_hou
                0x0c08fcec                PY_mb_cao
                0x0c090440                PY_mb_die
                0x0c0936c0                PY_mb_xia
                0x0c094788                PY_mb_zuo
                0x0c093294                PY_mb_tong
                0x0c091908                PY_mb_leng
                0x0c090ae0                PY_mb_gua
                0x0c0941cc                PY_mb_zei
                0x0c090078                PY_mb_chuang
                0x0c08fd08                PY_mb_ce
                0x0c092b2c                PY_mb_sao
                0x0c094354                PY_mb_zhen
                0x0c094240                PY_mb_zhai
                0x0c092588                PY_mb_pu
                0x0c094038                PY_mb_yuan
                0x0c092f54                PY_mb_song
                0x0c090d4c                PY_mb_hei
                0x0c090208                PY_mb_da
                0x0c091d70                PY_mb_mang
                0x0c094c2c                PY_index_k
                0x0c092210                PY_mb_nuo
                0x0c0910dc                PY_mb_jia
                0x0c0920f0                PY_mb_ng
                0x0c09067c                PY_mb_fa
                0x0c0944b4                PY_mb_zhong
                0x0c094720                PY_mb_zu
                0x0c0933dc                PY_mb_wai
                0x0c0921a0                PY_mb_ning
                0x0c094f84                PY_index_q
                0x0c093c94                PY_mb_yen
                0x0c09393c                PY_mb_xiu
                0x0c09332c                PY_mb_tui
                0x0c0913d4                PY_mb_jiong
                0x0c0926a0                PY_mb_qia
                0x0c094538                PY_mb_zhu
                0x0c094708                PY_mb_zou
                0x0c093258                PY_mb_tie
                0x0c08fe24                PY_mb_chao
                0x0c091d44                PY_mb_man
                0x0c091a20                PY_mb_liang
                0x0c091144                PY_mb_jian
                0x0c094ee4                PY_index_o
                0x0c090320                PY_mb_de
                0x0c09176c                PY_mb_kui
                0x0c091294                PY_mb_jie
                0x0c092978                PY_mb_que
                0x0c0908e0                PY_mb_gan
                0x0c09182c                PY_mb_lan
                0x0c09131c                PY_mb_jin
                0x0c092034                PY_mb_na
                0x0c0916d8                PY_mb_ku
                0x0c0931a0                PY_mb_ti
                0x0c090504                PY_mb_du
                0x0c091b94                PY_mb_lou
                0x0c091c24                PY_mb_luan
                0x0c0938c8                PY_mb_xin
                0x0c090b5c                PY_mb_gui
                0x0c092fe0                PY_mb_sui
                0x0c0943ec                PY_mb_zhi
                0x0c094760                PY_mb_zui
                0x0c0946f0                PY_mb_zong
                0x0c092b04                PY_mb_sal
                0x0c094090                PY_mb_yue
                0x0c0903c4                PY_mb_dian
                0x0c090b00                PY_mb_guai
                0x0c08fb4c                PY_mb_biao
                0x0c0900c4                PY_mb_chuo
                0x0c093228                PY_mb_tiao
                0x0c08f810                PY_mb_a
                0x0c090788                PY_mb_feng
                0x0c092518                PY_mb_ping
                0x0c094b1c                PY_index_h
                0x0c091cf8                PY_mb_ma
                0x0c0908b8                PY_mb_gai
                0x0c08fff0                PY_mb_chu
                0x0c0933b8                PY_mb_uu
                0x0c092150                PY_mb_niang
                0x0c0917d8                PY_mb_kuo
                0x0c0925d0                PY_mb_q
                0x0c0918d4                PY_mb_lei
                0x0c0915bc                PY_mb_kan
                0x0c0924c4                PY_mb_piao
                0x0c09064c                PY_mb_ei
                0x0c095274                PY_index_x
                0x0c0907c8                PY_mb_fou
                0x0c092230                PY_mb_nv
                0x0c0941f0                PY_mb_zha
                0x0c0904a4                PY_mb_diu
                0x0c091d8c                PY_mb_mao
                0x0c090040                PY_mb_chua
                0x0c094268                PY_mb_zhan
                0x0c094144                PY_mb_zan
                0x0c092adc                PY_mb_sa
                0x0c093968                PY_mb_xu
                0x0c0925d4                PY_mb_qi
                0x0c093dd8                PY_mb_yin
                0x0c094d8c                PY_index_m
                0x0c0924f8                PY_mb_pin
                0x0c092344                PY_mb_pei
                0x0c0920ec                PY_mb_neus
                0x0c091220                PY_mb_jiao
                0x0c09345c                PY_mb_wei
                0x0c090d7c                PY_mb_hong
                0x0c091b20                PY_mb_liu
                0x0c093434                PY_mb_wang
                0x0c090c0c                PY_mb_ha
                0x0c09460c                PY_mb_zhui
                0x0c092770                PY_mb_qiao
                0x0c092298                PY_mb_pai
                0x0c0904ac                PY_mb_dong
                0x0c091914                PY_mb_li
                0x0c0905a4                PY_mb_duo
                0x0c0922b4                PY_mb_pan
                0x0c0947bc                PY_index_a
                0x0c093e38                PY_mb_ying
                0x0c091b68                PY_mb_long
                0x0c090a74                PY_mb_gu
                0x0c092ed0                PY_mb_shuo
                0x0c090d54                PY_mb_hen
                0x0c091e68                PY_mb_mi
                0x0c091674                PY_mb_kei
                0x0c0933bc                PY_mb_wa
                0x0c091bb8                PY_mb_lu
                0x0c090404                PY_mb_diao
                0x0c092158                PY_mb_niao
                0x0c093570                PY_mb_wu
                0x0c093540                PY_mb_wo
                0x0c0919d4                PY_mb_lian
                0x0c0917f0                PY_mb_la
                0x0c09065c                PY_mb_er
                0x0c0907c0                PY_mb_fiao
                0x0c092ac4                PY_mb_run
                0x0c092c10                PY_mb_shang
                0x0c0902e4                PY_mb_dao
                0x0c0914c4                PY_mb_juan
                0x0c0941a0                PY_mb_ze
                0x0c09188c                PY_mb_lao
                0x0c093c98                PY_mb_yi
                0x0c090e6c                PY_mb_huai
                0x0c092ca0                PY_mb_shen
                0x0c0920dc                PY_mb_nen
                0x0c090944                PY_mb_gao
                0x0c090fc8                PY_mb_ji
                0x0c092c30                PY_mb_shao
                0x0c08f970                PY_mb_bang
                0x0c09522c                PY_index_w
                0x0c08fd38                PY_mb_cha
                0x0c092ef4                PY_mb_si
                0x0c09016c                PY_mb_cu
                0x0c092470                PY_mb_pianpang
                0x0c091c48                PY_mb_lun
                0x0c094114                PY_mb_za
                0x0c09384c                PY_mb_xie
                0x0c0945c8                PY_mb_zhuai
                0x0c093010                PY_mb_sun
                0x0c0915e4                PY_mb_kang
                0x0c08f914                PY_mb_bai
                0x0c0929bc                PY_mb_rang
                0x0c09305c                PY_mb_ta
                0x0c08fd78                PY_mb_chai
                0x0c090c3c                PY_mb_han
                0x0c094864                PY_index_c
                0x0c092d14                PY_mb_shi
                0x0c093a98                PY_mb_ya
                0x0c092378                PY_mb_pen
                0x0c09336c                PY_mb_tuo
                0x0c0943ac                PY_mb_zheng
                0x0c09089c                PY_mb_ga
                0x0c092570                PY_mb_pou
                0x0c090e3c                PY_mb_hua
                0x0c08fd1c                PY_mb_cen
                0x0c094bbc                PY_index_j
                0x0c09474c                PY_mb_zuan
                0x0c08fa40                PY_mb_beng
                0x0c094778                PY_mb_zun
                0x0c0945ec                PY_mb_zhuang
                0x0c0920f8                PY_mb_ni
                0x0c08fde4                PY_mb_chang
                0x0c091aa0                PY_mb_lin
                0x0c094e24                PY_index_n
                0x0c094a84                PY_index_g
                0x0c092248                PY_mb_o
                0x0c092dec                PY_mb_shu
                0x0c091cf4                PY_mb_m
                0x0c091604                PY_mb_kao
                0x0c08f89c                PY_mb_ao
                0x0c09430c                PY_mb_zhe
                0x0c08feb8                PY_mb_cheng
                0x0c093a1c                PY_mb_xue
                0x0c0940cc                PY_mb_yun
                0x0c091f70                PY_mb_mo
                0x0c093a40                PY_mb_xun
                0x0c092a2c                PY_mb_ri
                0x0c08fc68                PY_mb_bu
                0x0c091b64                PY_mb_lo
                0x0c0942a4                PY_mb_zhang
                0x0c0916a4                PY_mb_keop
                0x0c08fa28                PY_mb_ben
                0x0c092a9c                PY_mb_ruan
                0x0c0937e0                PY_mb_xiao
                0x0c092240                PY_mb_nve
                0x0c09057c                PY_mb_dun
                0x0c08fd34                PY_mb_ceok
                0x0c092e9c                PY_mb_shuang
                0x0c09212c                PY_mb_nian
                0x0c094a1c                PY_index_e
                0x0c092e8c                PY_mb_shuan
                0x0c09517c                PY_index_t
                0x0c093798                PY_mb_xiang
                0x0c093090                PY_mb_tai
                0x0c091904                PY_mb_len
                0x0c092844                PY_mb_qing
                0x0c092a30                PY_mb_rong
                0x0c09136c                PY_mb_jing
                0x0c092198                PY_mb_nin
                0x0c0920d0                PY_mb_nei
                0x0c093928                PY_mb_xiong
                0x0c090748                PY_mb_fen
                0x0c091554                PY_mb_jun
                0x0c08fbe8                PY_mb_bo
                0x0c092a1c                PY_mb_reng
                0x0c0929f0                PY_mb_ren
                0x0c0916bc                PY_mb_kou
                0x0c09353c                PY_mb_wie
                0x0c091730                PY_mb_kuan
                0x0c0900a4                PY_mb_chun
                0x0c091f20                PY_mb_min
                0x0c091678                PY_mb_kem
                0x0c08f820                PY_mb_ai
                0x0c08f85c                PY_mb_an
                0x0c090ed0                PY_mb_huang
                0x0c092388                PY_mb_peng
                0x0c0941d4                PY_mb_zen
                0x0c094bb4                PY_index_i
                0x0c0903c0                PY_mb_dia
                0x0c08fb94                PY_mb_bin
                0x0c092898                PY_mb_qiu
                0x0c0909e8                PY_mb_geng
                0x0c08fe70                PY_mb_chen
                0x0c092b74                PY_mb_sha
                0x0c0945c0                PY_mb_zhua
                0x0c092acc                PY_mb_ruo
                0x0c092074                PY_mb_nan
                0x0c0902c4                PY_mb_dang
                0x0c090a40                PY_mb_gou
                0x0c092ce4                PY_mb_sheng
                0x0c092c64                PY_mb_she
                0x0c093be8                PY_mb_yao
                0x0c092f78                PY_mb_sou
                0x0c090d64                PY_mb_heng
                0x0c08f9dc                PY_mb_bei
                0x0c08f938                PY_mb_ban
                0x0c0921c0                PY_mb_niu
                0x0c0901d0                PY_mb_cun
                0x0c092058                PY_mb_nai
                0x0c094350                PY_mb_zhei
                0x0c09202c                PY_mb_n
                0x0c09069c                PY_mb_fan
                0x0c091a4c                PY_mb_liao
                0x0c09535c                PY_index_z
                0x0c0901e0                PY_mb_cuo
                0x0c090358                PY_mb_di
                0x0c0909d8                PY_mb_gen
                0x0c094630                PY_mb_zhun
                0x0c09091c                PY_mb_gang
                0x0c090334                PY_mb_dei
                0x0c095064                PY_index_s
                0x0c09548c                PY_index_headletter
                0x0c0926bc                PY_mb_qian
                0x0c0919d0                PY_mb_lia
                0x0c092b70                PY_mb_seng
                0x0c09326c                PY_mb_ting
                0x0c092fd0                PY_mb_suan
                0x0c0906fc                PY_mb_fei
                0x0c092738                PY_mb_qiang
                0x0c091f48                PY_mb_ming
                0x0c0947b8                PY_mb_space
                0x0c094174                PY_mb_zao
                0x0c094690                PY_mb_zi
                0x0c092800                PY_mb_qin
                0x0c09244c                PY_mb_pian
                0x0c0920f4                PY_mb_ngag
                0x0c0934f8                PY_mb_wen
                0x0c090dc8                PY_mb_hu
                0x0c0941dc                PY_mb_zeng
                0x0c08fca8                PY_mb_cai
                0x0c091868                PY_mb_lang
                0x0c093e9c                PY_mb_yong
                0x0c091620                PY_mb_ke
                0x0c0933e8                PY_mb_wan
                0x0c090bb4                PY_mb_gun
                0x0c0911ec                PY_mb_jiang
                0x0c090c1c                PY_mb_hai
                0x0c08fb7c                PY_mb_bie
                0x0c0916fc                PY_mb_kua
                0x0c091eb4                PY_mb_mian
                0x0c08f998                PY_mb_bao
                0x0c095484                PY_index_end
                0x0c09317c                PY_mb_te
                0x0c090338                PY_mb_deng
                0x0c0900f0                PY_mb_ci
                0x0c092eac                PY_mb_shui
                0x0c094ef4                PY_index_p
                0x0c091f68                PY_mb_miu
                0x0c09216c                PY_mb_nie
                0x0c092ef0                PY_mb_shw
                0x0c0907d0                PY_mb_fu
                0x0c0944e4                PY_mb_zhou
                0x0c0905e8                PY_mb_e
                0x0c08fbbc                PY_mb_bing
                0x0c090560                PY_mb_dui
                0x0c091ff4                PY_mb_mu
                0x0c092e6c                PY_mb_shua
                0x0c090234                PY_mb_dai
                0x0c092b48                PY_mb_se
                0x0c0929a0                PY_mb_qun
                0x0c0921d4                PY_mb_nong
                0x0c09231c                PY_mb_pao
                0x0c0921e4                PY_mb_nou
                0x0c090bd0                PY_mb_guo
                0x0c092f9c                PY_mb_su
                0x0c090974                PY_mb_ge
                0x0c0924e8                PY_mb_pie
                0x0c0917b4                PY_mb_kun
                0x0c092090                PY_mb_nang
                0x0c093ed8                PY_mb_you
                0x0c091710                PY_mb_kuai
                0x0c091ee0                PY_mb_miao
                0x0c0918c0                PY_mb_le
                0x0c093600                PY_mb_xi
                0x0c09314c                PY_mb_tao
                0x0c090e84                PY_mb_huan
                0x0c0920a0                PY_mb_nao
                0x0c090270                PY_mb_dan
                0x0c092a58                PY_mb_rou
                0x0c0913e4                PY_mb_jiu
                0x0c094a3c                PY_index_f
                0x0c091810                PY_mb_lai
                0x0c091c3c                PY_mb_lue
                0x0c090650                PY_mb_en
                0x0c08ff10                PY_mb_chi
                0x0c093af0                PY_mb_yan
                0x0c08fd94                PY_mb_chan
                0x0c090cb4                PY_mb_hao
                0x0c090130                PY_mb_cong
                0x0c0939d4                PY_mb_xuan
                0x0c092c9c                PY_mb_shei
                0x0c0929ac                PY_mb_ran
                0x0c0929d0                PY_mb_rao
                0x0c090a08                PY_mb_gong
                0x0c08fc9c                PY_mb_ca
                0x0c08fd24                PY_mb_ceng
                0x0c094160                PY_mb_zang
                0x0c08fcc0                PY_mb_can
                0x0c092250                PY_mb_ou
                0x0c093c48                PY_mb_ye
                0x0c092208                PY_mb_nue
                0x0c0932d4                PY_mb_tou
                0x0c093e94                PY_mb_yo
                0x0c091fd4                PY_mb_mou
                0x0c093194                PY_mb_teng
                0x0c08fb0c                PY_mb_bian
                0x0c090044                PY_mb_chuai
                0x0c091adc                PY_mb_ling
                0x0c0916a8                PY_mb_kong
                0x0c09496c                PY_index_d
                0x0c090150                PY_mb_cou
                0x0c093708                PY_mb_xian
                0x0c0931ec                PY_mb_tian
                0x0c090548                PY_mb_duan
                0x0c091dd0                PY_mb_me
                0x0c0904dc                PY_mb_dou
                0x0c08fa64                PY_mb_bi
                0x0c094cbc                PY_index_l
                0x0c092200                PY_mb_nuan
                0x0c08ffbc                PY_mb_chou
                0x0c0938f4                PY_mb_xing
                0x0c090f6c                PY_mb_hun
                0x0c090f08                PY_mb_hui
                0x0c091e34                PY_mb_meng
                0x0c09253c                PY_mb_po
                0x0c090ce8                PY_mb_he
                0x0c092dc8                PY_mb_shou
                0x0c091e1c                PY_mb_men
                0x0c091d28                PY_mb_mai
                0x0c091740                PY_mb_kuang
                0x0c093028                PY_mb_suo
                0x0c0952e4                PY_index_y
                0x0c09521c                PY_index_u
                0x0c092a68                PY_mb_ru
                0x0c093bac                PY_mb_yang
                0x0c093318                PY_mb_tuan
                0x0c092aa8                PY_mb_rui
                0x0c0928e4                PY_mb_qu
                0x0c090b0c                PY_mb_guan
                0x0c092b68                PY_mb_sen
                0x0c092af4                PY_mb_sai
                0x0c092880                PY_mb_qiong
                0x0c090b44                PY_mb_guang
                0x0c091c5c                PY_mb_luo
                0x0c09310c                PY_mb_tang
                0x0c091cb4                PY_mb_lv
                0x0c08fcdc                PY_mb_cang
                0x0c090054                PY_mb_chuan
                0x0c09167c                PY_mb_ken
                0x0c091594                PY_mb_kai
                0x0c0923c0                PY_mb_pi
                0x0c08f890                PY_mb_ang
                0x0c090194                PY_mb_cuan
                0x0c09352c                PY_mb_weng
                0x0c093190                PY_mb_tei
                0x0c0920c0                PY_mb_ne
                0x0c0906d4                PY_mb_fang
                0x0c0942d8                PY_mb_zhao
                0x0c0914f8                PY_mb_jue
                0x0c092e7c                PY_mb_shuai
                0x0c09293c                PY_mb_quan
                0x0c0945d0                PY_mb_zhuan
                0x0c09412c                PY_mb_zai
                0x0c0920e4                PY_mb_neng
                0x0c0909d4                PY_mb_gei
                0x0c091a7c                PY_mb_lie
                0x0c091dd8                PY_mb_mei
                0x0c08f8d4                PY_mb_ba
                0x0c094ff4                PY_index_r
                0x0c095224                PY_index_v
                0x0c0921e8                PY_mb_nu
                0x0c0907c4                PY_mb_fo
                0x0c091428                PY_mb_ju
                0x0c090f90                PY_mb_huo
                0x0c0927cc                PY_mb_qie
                0x0c0929e4                PY_mb_re
                0x0c08ff90                PY_mb_chong
                0x0c090c94                PY_mb_hang
                0x0c090474                PY_mb_ding
                0x0c092ba8                PY_mb_shai
                0x0c093348                PY_mb_tun
                0x0c0922f4                PY_mb_pang
                0x0c0930bc                PY_mb_tan
                0x0c091f0c                PY_mb_mie
                0x0c091690                PY_mb_keng
                0x0c08fe50                PY_mb_che
                0x0c092274                PY_mb_pa
                0x0c094648                PY_mb_zhuo
                0x0c0901a8                PY_mb_cui
                0x0c0947e4                PY_index_b
                0x0c093f40                PY_mb_yu
                0x0c092bb4                PY_mb_shan
                0x0c092b1c                PY_mb_sang
                0x0c0916a0                PY_mb_keo
                0x0c092ebc                PY_mb_shun
 .data          0x0c0954f8        0x2 D:/资料/工作资源/ARM7-SDK-2011-05-20/HHFiles/lib//libWiFi.a(libWiFi.o)
 .data          0x0c0954fa        0x0 D:/资料/工作资源/ARM7-SDK-2011-05-20/HHFiles/lib//libWiFi.a(CNaNoWiFi.o)
 .data          0x0c0954fa        0x0 D:/资料/工作资源/ARM7-SDK-2011-05-20/HHFiles/lib//libWiFi.a(Analyse_0.o)
 .data          0x0c0954fa        0x0 D:/资料/工作资源/ARM7-SDK-2011-05-20/HHFiles/lib//libWiFi.a(WiFiPubFuncs.o)
 .data          0x0c0954fa        0x0 D:/资料/工作资源/ARM7-SDK-2011-05-20/HHFiles/lib//libWiFi.a(ARML.o)
 .data          0x0c0954fa        0x0 D:/资料/工作资源/ARM7-SDK-2011-05-20/HHFiles/lib//libWiFi.a(PhyL.o)
 *fill*         0x0c0954fa        0x2 00
 .data          0x0c0954fc        0x8 D:/资料/工作资源/ARM7-SDK-2011-05-20/HHFiles/lib//libdb.a(database.o)
 .data          0x0c095504        0x0 D:/资料/工作资源/ARM7-SDK-2011-05-20/HHFiles/lib//libusb.a(D12ci.o)
 .data          0x0c095504        0x0 D:/资料/工作资源/ARM7-SDK-2011-05-20/HHFiles/lib//libusb.a(D12Driver.o)
 .data          0x0c095504        0x0 D:/资料/工作资源/ARM7-SDK-2011-05-20/HHFiles/lib//libusb.a(D12hal.o)
 .data          0x0c095504       0x40 D:/资料/工作资源/ARM7-SDK-2011-05-20/HHFiles/lib//libusb.a(Chap_9.o)
                0x0c095504                StandardDeviceRequest
 .data          0x0c095544        0x0 D:/资料/工作资源/ARM7-SDK-2011-05-20/HHFiles/lib//libusb.a(Descriptor.o)
 .data          0x0c095544        0x0 D:/资料/工作资源/ARM7-SDK-2011-05-20/GNU/arm-elf/lib//libgcc.a(_udivsi3.o)
 .data          0x0c095544        0x0 D:/资料/工作资源/ARM7-SDK-2011-05-20/GNU/arm-elf/lib//libgcc.a(_divsi3.o)
 .data          0x0c095544        0x0 D:/资料/工作资源/ARM7-SDK-2011-05-20/GNU/arm-elf/lib//libgcc.a(_umodsi3.o)
 .data          0x0c095544        0x0 D:/资料/工作资源/ARM7-SDK-2011-05-20/GNU/arm-elf/lib//libgcc.a(_modsi3.o)
 .data          0x0c095544        0x0 D:/资料/工作资源/ARM7-SDK-2011-05-20/GNU/arm-elf/lib//libgcc.a(_dvmd_tls.o)
 .data          0x0c095544        0x0 D:/资料/工作资源/ARM7-SDK-2011-05-20/GNU/arm-elf/lib//libgcc.a(_addsubdf3.o)
 .data          0x0c095544        0x0 D:/资料/工作资源/ARM7-SDK-2011-05-20/GNU/arm-elf/lib//libgcc.a(_muldivdf3.o)
 .data          0x0c095544        0x0 D:/资料/工作资源/ARM7-SDK-2011-05-20/GNU/arm-elf/lib//libgcc.a(_cmpdf2.o)
 .data          0x0c095544        0x0 D:/资料/工作资源/ARM7-SDK-2011-05-20/GNU/arm-elf/lib//libgcc.a(_fixdfsi.o)
 .data          0x0c095544        0x0 D:/资料/工作资源/ARM7-SDK-2011-05-20/GNU/arm-elf/lib//libgcc.a(_fixunsdfsi.o)
 .data          0x0c095544        0x0 D:/资料/工作资源/ARM7-SDK-2011-05-20/GNU/arm-elf/lib//libgcc.a(_truncdfsf2.o)
 .data          0x0c095544        0x0 D:/资料/工作资源/ARM7-SDK-2011-05-20/GNU/arm-elf/lib//libc.a(lib_a-atol.o)
 .data          0x0c095544        0x0 D:/资料/工作资源/ARM7-SDK-2011-05-20/GNU/arm-elf/lib//libc.a(lib_a-memcmp.o)
 .data          0x0c095544        0x0 D:/资料/工作资源/ARM7-SDK-2011-05-20/GNU/arm-elf/lib//libc.a(lib_a-strcat.o)
 .data          0x0c095544        0x0 D:/资料/工作资源/ARM7-SDK-2011-05-20/GNU/arm-elf/lib//libc.a(lib_a-strstr.o)
 .data          0x0c095544        0x0 D:/资料/工作资源/ARM7-SDK-2011-05-20/GNU/arm-elf/lib//libm.a(lib_a-w_pow.o)
 .data          0x0c095544        0x0 D:/资料/工作资源/ARM7-SDK-2011-05-20/GNU/arm-elf/lib//libm.a(lib_a-e_pow.o)
 .data          0x0c095544        0x0 D:/资料/工作资源/ARM7-SDK-2011-05-20/GNU/arm-elf/lib//libm.a(lib_a-e_sqrt.o)
 .data          0x0c095544        0x0 D:/资料/工作资源/ARM7-SDK-2011-05-20/GNU/arm-elf/lib//libm.a(lib_a-s_fabs.o)
 .data          0x0c095544        0x0 D:/资料/工作资源/ARM7-SDK-2011-05-20/GNU/arm-elf/lib//libm.a(lib_a-s_finite.o)
 .data          0x0c095544        0x4 D:/资料/工作资源/ARM7-SDK-2011-05-20/GNU/arm-elf/lib//libm.a(lib_a-s_lib_ver.o)
                0x0c095544                __fdlib_version
 .data          0x0c095548        0x0 D:/资料/工作资源/ARM7-SDK-2011-05-20/GNU/arm-elf/lib//libm.a(lib_a-s_matherr.o)
 .data          0x0c095548        0x0 D:/资料/工作资源/ARM7-SDK-2011-05-20/GNU/arm-elf/lib//libm.a(lib_a-s_rint.o)
 .data          0x0c095548        0x0 D:/资料/工作资源/ARM7-SDK-2011-05-20/GNU/arm-elf/lib//libm.a(lib_a-s_scalbn.o)
 .data          0x0c095548        0x0 D:/资料/工作资源/ARM7-SDK-2011-05-20/GNU/arm-elf/lib//libm.a(lib_a-s_copysign.o)
 .data          0x0c095548        0x0 D:/资料/工作资源/ARM7-SDK-2011-05-20/GNU/arm-elf/lib//libc.a(lib_a-errno.o)
                0x0c095548                . = ALIGN (0x4)
                0x0c095548                _edata = .

.bss            0x0c095548     0x1390
                0x0c095548                . = ALIGN (0x4)
                0x0c095548                _start_bss = .
 *(.bss)
 .bss           0x0c095548        0xc D:/项目文件夹/WiFi_Demo/Release/crt0.o
                0x0c095548                __env
 .bss           0x0c095554        0x0 D:/项目文件夹/WiFi_Demo/Release/WiFi_Demo.o
 .bss           0x0c095554        0x0 D:/项目文件夹/WiFi_Demo/Release/d_upload.o
 .bss           0x0c095554        0x0 D:/项目文件夹/WiFi_Demo/Release/fun.o
 .bss           0x0c095554        0x0 D:/项目文件夹/WiFi_Demo/Release/macset.o
 .bss           0x0c095554        0x0 D:/项目文件夹/WiFi_Demo/Release/vst_db.o
 .bss           0x0c095554       0x22 D:/项目文件夹/WiFi_Demo/Release/wifi_con.o
                0x0c095554                g_pHandle
 .bss           0x0c095576        0x0 D:/项目文件夹/WiFi_Demo/Release/eeprom.o
 .bss           0x0c095576        0x0 D:/项目文件夹/WiFi_Demo/Release/mifare.o
 .bss           0x0c095576        0x0 D:/项目文件夹/WiFi_Demo/Release/cal_key.o
 .bss           0x0c095576        0x0 D:/项目文件夹/WiFi_Demo/Release/usbprog.o
 .bss           0x0c095576        0x0 D:/项目文件夹/WiFi_Demo/Release/db.o
 *fill*         0x0c095576        0x2 00
 .bss           0x0c095578        0x4 D:/项目文件夹/WiFi_Demo/Release/iso8583.o
 .bss           0x0c09557c        0x0 D:/项目文件夹/WiFi_Demo/Release/cpu_card.o
 .bss           0x0c09557c        0x0 D:/资料/工作资源/ARM7-SDK-2011-05-20/GNU/arm-elf/lib//libc.a(lib_a-fprintf.o)
 .bss           0x0c09557c        0x0 D:/资料/工作资源/ARM7-SDK-2011-05-20/GNU/arm-elf/lib//libc.a(lib_a-memcpy.o)
 .bss           0x0c09557c        0x0 D:/资料/工作资源/ARM7-SDK-2011-05-20/GNU/arm-elf/lib//libc.a(lib_a-memset.o)
 .bss           0x0c09557c        0x0 D:/资料/工作资源/ARM7-SDK-2011-05-20/GNU/arm-elf/lib//libc.a(lib_a-sprintf.o)
 .bss           0x0c09557c        0x0 D:/资料/工作资源/ARM7-SDK-2011-05-20/GNU/arm-elf/lib//libc.a(lib_a-sscanf.o)
 .bss           0x0c09557c        0x0 D:/资料/工作资源/ARM7-SDK-2011-05-20/GNU/arm-elf/lib//libc.a(lib_a-strcpy.o)
 .bss           0x0c09557c        0x0 D:/资料/工作资源/ARM7-SDK-2011-05-20/GNU/arm-elf/lib//libc.a(lib_a-strlen.o)
 .bss           0x0c09557c        0x0 D:/资料/工作资源/ARM7-SDK-2011-05-20/GNU/arm-elf/lib//libc.a(lib_a-strncmp.o)
 .bss           0x0c09557c        0x0 D:/资料/工作资源/ARM7-SDK-2011-05-20/GNU/arm-elf/lib//libc.a(lib_a-strncpy.o)
 .bss           0x0c09557c        0x0 D:/资料/工作资源/ARM7-SDK-2011-05-20/GNU/arm-elf/lib//libc.a(lib_a-strtoul.o)
 .bss           0x0c09557c        0x0 D:/资料/工作资源/ARM7-SDK-2011-05-20/GNU/arm-elf/lib//libc.a(lib_a-vfprintf.o)
 .bss           0x0c09557c        0x0 D:/资料/工作资源/ARM7-SDK-2011-05-20/GNU/arm-elf/lib//libc.a(lib_a-vfscanf.o)
 .bss           0x0c09557c        0x0 D:/资料/工作资源/ARM7-SDK-2011-05-20/GNU/arm-elf/lib//libc.a(lib_a-wcrtomb.o)
 .bss           0x0c09557c        0x0 D:/资料/工作资源/ARM7-SDK-2011-05-20/GNU/arm-elf/lib//libc.a(lib_a-wcsrtombs.o)
 .bss           0x0c09557c        0x0 D:/资料/工作资源/ARM7-SDK-2011-05-20/GNU/arm-elf/lib//libc.a(lib_a-wctomb_r.o)
 .bss           0x0c09557c        0x0 D:/资料/工作资源/ARM7-SDK-2011-05-20/GNU/arm-elf/lib//libc.a(lib_a-wsetup.o)
 .bss           0x0c09557c        0x0 D:/资料/工作资源/ARM7-SDK-2011-05-20/GNU/arm-elf/lib//libc.a(lib_a-ctype_.o)
 .bss           0x0c09557c        0x0 D:/资料/工作资源/ARM7-SDK-2011-05-20/GNU/arm-elf/lib//libc.a(lib_a-dtoa.o)
 .bss           0x0c09557c        0x0 D:/资料/工作资源/ARM7-SDK-2011-05-20/GNU/arm-elf/lib//libc.a(lib_a-fflush.o)
 .bss           0x0c09557c        0x0 D:/资料/工作资源/ARM7-SDK-2011-05-20/GNU/arm-elf/lib//libc.a(lib_a-findfp.o)
 .bss           0x0c09557c        0x0 D:/资料/工作资源/ARM7-SDK-2011-05-20/GNU/arm-elf/lib//libc.a(lib_a-fread.o)
 .bss           0x0c09557c        0x0 D:/资料/工作资源/ARM7-SDK-2011-05-20/GNU/arm-elf/lib//libc.a(lib_a-freer.o)
 .bss           0x0c09557c        0x0 D:/资料/工作资源/ARM7-SDK-2011-05-20/GNU/arm-elf/lib//libc.a(lib_a-fvwrite.o)
 .bss           0x0c09557c        0x0 D:/资料/工作资源/ARM7-SDK-2011-05-20/GNU/arm-elf/lib//libc.a(lib_a-fwalk.o)
 .bss           0x0c09557c        0x0 D:/资料/工作资源/ARM7-SDK-2011-05-20/GNU/arm-elf/lib//libc.a(lib_a-impure.o)
 .bss           0x0c09557c        0x0 D:/资料/工作资源/ARM7-SDK-2011-05-20/GNU/arm-elf/lib//libc.a(lib_a-iswspace.o)
 .bss           0x0c09557c        0xc D:/资料/工作资源/ARM7-SDK-2011-05-20/GNU/arm-elf/lib//libc.a(lib_a-locale.o)
                0x0c09557c                __nlocale_changed
                0x0c095580                __mlocale_changed
                0x0c095584                _PathLocale
 .bss           0x0c095588        0x0 D:/资料/工作资源/ARM7-SDK-2011-05-20/GNU/arm-elf/lib//libc.a(lib_a-makebuf.o)
 .bss           0x0c095588       0x34 D:/资料/工作资源/ARM7-SDK-2011-05-20/GNU/arm-elf/lib//libc.a(lib_a-mallocr.o)
                0x0c095588                __malloc_top_pad
                0x0c09558c                __malloc_max_sbrked_mem
                0x0c095594                __malloc_current_mallinfo
                0x0c095590                __malloc_max_total_mem
 .bss           0x0c0955bc        0x0 D:/资料/工作资源/ARM7-SDK-2011-05-20/GNU/arm-elf/lib//libc.a(lib_a-mbrtowc.o)
 .bss           0x0c0955bc        0x0 D:/资料/工作资源/ARM7-SDK-2011-05-20/GNU/arm-elf/lib//libc.a(lib_a-mbtowc_r.o)
 .bss           0x0c0955bc        0x0 D:/资料/工作资源/ARM7-SDK-2011-05-20/GNU/arm-elf/lib//libc.a(lib_a-memchr.o)
 .bss           0x0c0955bc        0x0 D:/资料/工作资源/ARM7-SDK-2011-05-20/GNU/arm-elf/lib//libc.a(lib_a-memmove.o)
 .bss           0x0c0955bc        0x0 D:/资料/工作资源/ARM7-SDK-2011-05-20/GNU/arm-elf/lib//libc.a(lib_a-mlock.o)
 .bss           0x0c0955bc        0x0 D:/资料/工作资源/ARM7-SDK-2011-05-20/GNU/arm-elf/lib//libc.a(lib_a-mprec.o)
 .bss           0x0c0955bc        0x0 D:/资料/工作资源/ARM7-SDK-2011-05-20/GNU/arm-elf/lib//libc.a(lib_a-reallocr.o)
 .bss           0x0c0955bc        0x0 D:/资料/工作资源/ARM7-SDK-2011-05-20/GNU/arm-elf/lib//libc.a(lib_a-refill.o)
 .bss           0x0c0955bc        0x0 D:/资料/工作资源/ARM7-SDK-2011-05-20/GNU/arm-elf/lib//libc.a(lib_a-s_isinfd.o)
 .bss           0x0c0955bc        0x0 D:/资料/工作资源/ARM7-SDK-2011-05-20/GNU/arm-elf/lib//libc.a(lib_a-s_isnand.o)
 .bss           0x0c0955bc        0x0 D:/资料/工作资源/ARM7-SDK-2011-05-20/GNU/arm-elf/lib//libc.a(lib_a-sccl.o)
 .bss           0x0c0955bc        0x0 D:/资料/工作资源/ARM7-SDK-2011-05-20/GNU/arm-elf/lib//libc.a(lib_a-sf_nan.o)
 .bss           0x0c0955bc        0x0 D:/资料/工作资源/ARM7-SDK-2011-05-20/GNU/arm-elf/lib//libc.a(lib_a-stdio.o)
 .bss           0x0c0955bc        0x0 D:/资料/工作资源/ARM7-SDK-2011-05-20/GNU/arm-elf/lib//libc.a(lib_a-strcmp.o)
 .bss           0x0c0955bc        0x0 D:/资料/工作资源/ARM7-SDK-2011-05-20/GNU/arm-elf/lib//libc.a(lib_a-strtod.o)
 .bss           0x0c0955bc        0x0 D:/资料/工作资源/ARM7-SDK-2011-05-20/GNU/arm-elf/lib//libc.a(lib_a-strtol.o)
 .bss           0x0c0955bc        0x0 D:/资料/工作资源/ARM7-SDK-2011-05-20/GNU/arm-elf/lib//libc.a(lib_a-ungetc.o)
 .bss           0x0c0955bc        0x0 D:/资料/工作资源/ARM7-SDK-2011-05-20/GNU/arm-elf/lib//libc.a(lib_a-callocr.o)
 .bss           0x0c0955bc        0x0 D:/资料/工作资源/ARM7-SDK-2011-05-20/GNU/arm-elf/lib//libc.a(lib_a-fclose.o)
 .bss           0x0c0955bc        0x0 D:/资料/工作资源/ARM7-SDK-2011-05-20/GNU/arm-elf/lib//libc.a(lib_a-gdtoa-gethex.o)
 .bss           0x0c0955bc        0x0 D:/资料/工作资源/ARM7-SDK-2011-05-20/GNU/arm-elf/lib//libc.a(lib_a-gdtoa-hexnan.o)
 .bss           0x0c0955bc        0x0 D:/资料/工作资源/ARM7-SDK-2011-05-20/HHFiles/lib//libARMPos.a(libARMPos.o)
 .bss           0x0c0955bc        0x0 D:/资料/工作资源/ARM7-SDK-2011-05-20/HHFiles/lib//libARMPos.a(call_api.o)
 *fill*         0x0c0955bc        0x4 00
 .bss           0x0c0955c0       0x10 D:/资料/工作资源/ARM7-SDK-2011-05-20/HHFiles/lib//libcard.a(libcard.o)
 .bss           0x0c0955d0       0xc4 D:/资料/工作资源/ARM7-SDK-2011-05-20/HHFiles/lib//libcard.a(cpucard.o)
 .bss           0x0c095694       0x60 D:/资料/工作资源/ARM7-SDK-2011-05-20/HHFiles/lib//libcontactless.a(iso14443.o)
 .bss           0x0c0956f4        0x0 D:/资料/工作资源/ARM7-SDK-2011-05-20/HHFiles/lib//libcontactless.a(mifare.o)
 .bss           0x0c0956f4        0x0 D:/资料/工作资源/ARM7-SDK-2011-05-20/HHFiles/lib//libcontactless.a(port.o)
 .bss           0x0c0956f4        0x0 D:/资料/工作资源/ARM7-SDK-2011-05-20/HHFiles/lib//libcontactless.a(rcxcomm.o)
 .bss           0x0c0956f4        0x0 D:/资料/工作资源/ARM7-SDK-2011-05-20/HHFiles/lib//libcontactless.a(rcxreg.o)
 .bss           0x0c0956f4        0x4 D:/资料/工作资源/ARM7-SDK-2011-05-20/HHFiles/lib//libext.a(exlib.o)
 .bss           0x0c0956f8        0x0 D:/资料/工作资源/ARM7-SDK-2011-05-20/HHFiles/lib//libext.a(exlib_pinyin.o)
 .bss           0x0c0956f8        0x1 D:/资料/工作资源/ARM7-SDK-2011-05-20/HHFiles/lib//libWiFi.a(libWiFi.o)
 .bss           0x0c0956f9        0x0 D:/资料/工作资源/ARM7-SDK-2011-05-20/HHFiles/lib//libWiFi.a(CNaNoWiFi.o)
 .bss           0x0c0956f9        0x0 D:/资料/工作资源/ARM7-SDK-2011-05-20/HHFiles/lib//libWiFi.a(Analyse_0.o)
 .bss           0x0c0956f9        0x0 D:/资料/工作资源/ARM7-SDK-2011-05-20/HHFiles/lib//libWiFi.a(WiFiPubFuncs.o)
 .bss           0x0c0956f9        0x0 D:/资料/工作资源/ARM7-SDK-2011-05-20/HHFiles/lib//libWiFi.a(ARML.o)
 .bss           0x0c0956f9        0x0 D:/资料/工作资源/ARM7-SDK-2011-05-20/HHFiles/lib//libWiFi.a(PhyL.o)
 *fill*         0x0c0956f9        0x3 00
 .bss           0x0c0956fc      0x14c D:/资料/工作资源/ARM7-SDK-2011-05-20/HHFiles/lib//libdb.a(database.o)
 .bss           0x0c095848        0x0 D:/资料/工作资源/ARM7-SDK-2011-05-20/HHFiles/lib//libusb.a(D12ci.o)
 .bss           0x0c095848        0x0 D:/资料/工作资源/ARM7-SDK-2011-05-20/HHFiles/lib//libusb.a(D12Driver.o)
 .bss           0x0c095848        0x0 D:/资料/工作资源/ARM7-SDK-2011-05-20/HHFiles/lib//libusb.a(D12hal.o)
 .bss           0x0c095848        0x0 D:/资料/工作资源/ARM7-SDK-2011-05-20/HHFiles/lib//libusb.a(Chap_9.o)
 .bss           0x0c095848        0x0 D:/资料/工作资源/ARM7-SDK-2011-05-20/HHFiles/lib//libusb.a(Descriptor.o)
 .bss           0x0c095848        0x0 D:/资料/工作资源/ARM7-SDK-2011-05-20/GNU/arm-elf/lib//libgcc.a(_udivsi3.o)
 .bss           0x0c095848        0x0 D:/资料/工作资源/ARM7-SDK-2011-05-20/GNU/arm-elf/lib//libgcc.a(_divsi3.o)
 .bss           0x0c095848        0x0 D:/资料/工作资源/ARM7-SDK-2011-05-20/GNU/arm-elf/lib//libgcc.a(_umodsi3.o)
 .bss           0x0c095848        0x0 D:/资料/工作资源/ARM7-SDK-2011-05-20/GNU/arm-elf/lib//libgcc.a(_modsi3.o)
 .bss           0x0c095848        0x0 D:/资料/工作资源/ARM7-SDK-2011-05-20/GNU/arm-elf/lib//libgcc.a(_dvmd_tls.o)
 .bss           0x0c095848        0x0 D:/资料/工作资源/ARM7-SDK-2011-05-20/GNU/arm-elf/lib//libgcc.a(_addsubdf3.o)
 .bss           0x0c095848        0x0 D:/资料/工作资源/ARM7-SDK-2011-05-20/GNU/arm-elf/lib//libgcc.a(_muldivdf3.o)
 .bss           0x0c095848        0x0 D:/资料/工作资源/ARM7-SDK-2011-05-20/GNU/arm-elf/lib//libgcc.a(_cmpdf2.o)
 .bss           0x0c095848        0x0 D:/资料/工作资源/ARM7-SDK-2011-05-20/GNU/arm-elf/lib//libgcc.a(_fixdfsi.o)
 .bss           0x0c095848        0x0 D:/资料/工作资源/ARM7-SDK-2011-05-20/GNU/arm-elf/lib//libgcc.a(_fixunsdfsi.o)
 .bss           0x0c095848        0x0 D:/资料/工作资源/ARM7-SDK-2011-05-20/GNU/arm-elf/lib//libgcc.a(_truncdfsf2.o)
 .bss           0x0c095848        0x0 D:/资料/工作资源/ARM7-SDK-2011-05-20/GNU/arm-elf/lib//libc.a(lib_a-atol.o)
 .bss           0x0c095848        0x0 D:/资料/工作资源/ARM7-SDK-2011-05-20/GNU/arm-elf/lib//libc.a(lib_a-memcmp.o)
 .bss           0x0c095848        0x0 D:/资料/工作资源/ARM7-SDK-2011-05-20/GNU/arm-elf/lib//libc.a(lib_a-strcat.o)
 .bss           0x0c095848        0x0 D:/资料/工作资源/ARM7-SDK-2011-05-20/GNU/arm-elf/lib//libc.a(lib_a-strstr.o)
 .bss           0x0c095848        0x0 D:/资料/工作资源/ARM7-SDK-2011-05-20/GNU/arm-elf/lib//libm.a(lib_a-w_pow.o)
 .bss           0x0c095848        0x0 D:/资料/工作资源/ARM7-SDK-2011-05-20/GNU/arm-elf/lib//libm.a(lib_a-e_pow.o)
 .bss           0x0c095848        0x0 D:/资料/工作资源/ARM7-SDK-2011-05-20/GNU/arm-elf/lib//libm.a(lib_a-e_sqrt.o)
 .bss           0x0c095848        0x0 D:/资料/工作资源/ARM7-SDK-2011-05-20/GNU/arm-elf/lib//libm.a(lib_a-s_fabs.o)
 .bss           0x0c095848        0x0 D:/资料/工作资源/ARM7-SDK-2011-05-20/GNU/arm-elf/lib//libm.a(lib_a-s_finite.o)
 .bss           0x0c095848        0x0 D:/资料/工作资源/ARM7-SDK-2011-05-20/GNU/arm-elf/lib//libm.a(lib_a-s_lib_ver.o)
 .bss           0x0c095848        0x0 D:/资料/工作资源/ARM7-SDK-2011-05-20/GNU/arm-elf/lib//libm.a(lib_a-s_matherr.o)
 .bss           0x0c095848        0x0 D:/资料/工作资源/ARM7-SDK-2011-05-20/GNU/arm-elf/lib//libm.a(lib_a-s_rint.o)
 .bss           0x0c095848        0x0 D:/资料/工作资源/ARM7-SDK-2011-05-20/GNU/arm-elf/lib//libm.a(lib_a-s_scalbn.o)
 .bss           0x0c095848        0x0 D:/资料/工作资源/ARM7-SDK-2011-05-20/GNU/arm-elf/lib//libm.a(lib_a-s_copysign.o)
 .bss           0x0c095848        0x0 D:/资料/工作资源/ARM7-SDK-2011-05-20/GNU/arm-elf/lib//libc.a(lib_a-errno.o)
 *(COMMON)
 COMMON         0x0c095848        0x4 D:/项目文件夹/WiFi_Demo/Release/crt0.o
                0x0c095848                errno
 COMMON         0x0c09584c        0x2 D:/项目文件夹/WiFi_Demo/Release/WiFi_Demo.o
                0x0c09584c                g_simerr
 COMMON         0x0c09584e      0x382 D:/项目文件夹/WiFi_Demo/Release/cal_key.o
                0x0c09584e                subkey
                0x0c095b8f                IP_result
 COMMON         0x0c095bd0      0x100 D:/资料/工作资源/ARM7-SDK-2011-05-20/GNU/arm-elf/lib//libc.a(lib_a-gdtoa-gethex.o)
                0x0c095bd0                __hexdig
 COMMON         0x0c095cd0       0x1c D:/资料/工作资源/ARM7-SDK-2011-05-20/HHFiles/lib//libext.a(exlib.o)
                0x0c095cd0                G_sys_param
 COMMON         0x0c095cec        0x8 D:/资料/工作资源/ARM7-SDK-2011-05-20/HHFiles/lib//libWiFi.a(libWiFi.o)
                0x0c095cec                g_LangID
                0x0c095cf0                g_WiFiMsg
 COMMON         0x0c095cf4      0xbc6 D:/资料/工作资源/ARM7-SDK-2011-05-20/HHFiles/lib//libWiFi.a(CNaNoWiFi.o)
                0x0c095cf4                g_WBuffer
                0x0c0962d0                g_RLen
                0x0c0962d4                g_RBuffer
                0x0c0968b0                g_temp
 COMMON         0x0c0968ba        0x1 D:/资料/工作资源/ARM7-SDK-2011-05-20/HHFiles/lib//libWiFi.a(PhyL.o)
                0x0c0968ba                g_uart_use
 *fill*         0x0c0968bb        0x1 00
 COMMON         0x0c0968bc       0x1c D:/资料/工作资源/ARM7-SDK-2011-05-20/HHFiles/lib//libusb.a(D12Driver.o)
                0x0c0968bc                bEPPflags
                0x0c0968c0                ControlData
                0x0c0968d8                . = ALIGN (0x4)
                0x0c0968d8                _end_bss = .
                0x0c0968d8                . = ALIGN (0x4)
                0x0c0968d8                end = .
                0x0c0968d8                _end = .
OUTPUT(D:/项目文件夹/WiFi_Demo/Release/WiFi_Demo.cof elf32-littlearm)

.comment        0x00000000      0x71a
 .comment       0x00000000       0x12 D:/项目文件夹/WiFi_Demo/Release/crt0.o
 .comment       0x00000012       0x12 D:/项目文件夹/WiFi_Demo/Release/WiFi_Demo.o
 .comment       0x00000024       0x12 D:/项目文件夹/WiFi_Demo/Release/d_upload.o
 .comment       0x00000036       0x12 D:/项目文件夹/WiFi_Demo/Release/fun.o
 .comment       0x00000048       0x12 D:/项目文件夹/WiFi_Demo/Release/macset.o
 .comment       0x0000005a       0x12 D:/项目文件夹/WiFi_Demo/Release/vst_db.o
 .comment       0x0000006c       0x12 D:/项目文件夹/WiFi_Demo/Release/wifi_con.o
 .comment       0x0000007e       0x12 D:/项目文件夹/WiFi_Demo/Release/eeprom.o
 .comment       0x00000090       0x12 D:/项目文件夹/WiFi_Demo/Release/mifare.o
 .comment       0x000000a2       0x12 D:/项目文件夹/WiFi_Demo/Release/cal_key.o
 .comment       0x000000b4       0x12 D:/项目文件夹/WiFi_Demo/Release/usbprog.o
 .comment       0x000000c6       0x12 D:/项目文件夹/WiFi_Demo/Release/db.o
 .comment       0x000000d8       0x12 D:/项目文件夹/WiFi_Demo/Release/iso8583.o
 .comment       0x000000ea       0x12 D:/项目文件夹/WiFi_Demo/Release/cpu_card.o
 .comment       0x000000fc       0x12 D:/资料/工作资源/ARM7-SDK-2011-05-20/GNU/arm-elf/lib//libc.a(lib_a-fprintf.o)
 .comment       0x0000010e       0x12 D:/资料/工作资源/ARM7-SDK-2011-05-20/GNU/arm-elf/lib//libc.a(lib_a-memcpy.o)
 .comment       0x00000120       0x12 D:/资料/工作资源/ARM7-SDK-2011-05-20/GNU/arm-elf/lib//libc.a(lib_a-memset.o)
 .comment       0x00000132       0x12 D:/资料/工作资源/ARM7-SDK-2011-05-20/GNU/arm-elf/lib//libc.a(lib_a-sprintf.o)
 .comment       0x00000144       0x12 D:/资料/工作资源/ARM7-SDK-2011-05-20/GNU/arm-elf/lib//libc.a(lib_a-sscanf.o)
 .comment       0x00000156       0x12 D:/资料/工作资源/ARM7-SDK-2011-05-20/GNU/arm-elf/lib//libc.a(lib_a-strcpy.o)
 .comment       0x00000168       0x12 D:/资料/工作资源/ARM7-SDK-2011-05-20/GNU/arm-elf/lib//libc.a(lib_a-strlen.o)
 .comment       0x0000017a       0x12 D:/资料/工作资源/ARM7-SDK-2011-05-20/GNU/arm-elf/lib//libc.a(lib_a-strncmp.o)
 .comment       0x0000018c       0x12 D:/资料/工作资源/ARM7-SDK-2011-05-20/GNU/arm-elf/lib//libc.a(lib_a-strncpy.o)
 .comment       0x0000019e       0x12 D:/资料/工作资源/ARM7-SDK-2011-05-20/GNU/arm-elf/lib//libc.a(lib_a-strtoul.o)
 .comment       0x000001b0       0x12 D:/资料/工作资源/ARM7-SDK-2011-05-20/GNU/arm-elf/lib//libc.a(lib_a-vfprintf.o)
 .comment       0x000001c2       0x12 D:/资料/工作资源/ARM7-SDK-2011-05-20/GNU/arm-elf/lib//libc.a(lib_a-vfscanf.o)
 .comment       0x000001d4       0x12 D:/资料/工作资源/ARM7-SDK-2011-05-20/GNU/arm-elf/lib//libc.a(lib_a-wcrtomb.o)
 .comment       0x000001e6       0x12 D:/资料/工作资源/ARM7-SDK-2011-05-20/GNU/arm-elf/lib//libc.a(lib_a-wcsrtombs.o)
 .comment       0x000001f8       0x12 D:/资料/工作资源/ARM7-SDK-2011-05-20/GNU/arm-elf/lib//libc.a(lib_a-wctomb_r.o)
 .comment       0x0000020a       0x12 D:/资料/工作资源/ARM7-SDK-2011-05-20/GNU/arm-elf/lib//libc.a(lib_a-wsetup.o)
 .comment       0x0000021c       0x12 D:/资料/工作资源/ARM7-SDK-2011-05-20/GNU/arm-elf/lib//libc.a(lib_a-ctype_.o)
 .comment       0x0000022e       0x12 D:/资料/工作资源/ARM7-SDK-2011-05-20/GNU/arm-elf/lib//libc.a(lib_a-dtoa.o)
 .comment       0x00000240       0x12 D:/资料/工作资源/ARM7-SDK-2011-05-20/GNU/arm-elf/lib//libc.a(lib_a-fflush.o)
 .comment       0x00000252       0x12 D:/资料/工作资源/ARM7-SDK-2011-05-20/GNU/arm-elf/lib//libc.a(lib_a-findfp.o)
 .comment       0x00000264       0x12 D:/资料/工作资源/ARM7-SDK-2011-05-20/GNU/arm-elf/lib//libc.a(lib_a-fread.o)
 .comment       0x00000276       0x12 D:/资料/工作资源/ARM7-SDK-2011-05-20/GNU/arm-elf/lib//libc.a(lib_a-freer.o)
 .comment       0x00000288       0x12 D:/资料/工作资源/ARM7-SDK-2011-05-20/GNU/arm-elf/lib//libc.a(lib_a-fvwrite.o)
 .comment       0x0000029a       0x12 D:/资料/工作资源/ARM7-SDK-2011-05-20/GNU/arm-elf/lib//libc.a(lib_a-fwalk.o)
 .comment       0x000002ac       0x12 D:/资料/工作资源/ARM7-SDK-2011-05-20/GNU/arm-elf/lib//libc.a(lib_a-impure.o)
 .comment       0x000002be       0x12 D:/资料/工作资源/ARM7-SDK-2011-05-20/GNU/arm-elf/lib//libc.a(lib_a-iswspace.o)
 .comment       0x000002d0       0x12 D:/资料/工作资源/ARM7-SDK-2011-05-20/GNU/arm-elf/lib//libc.a(lib_a-locale.o)
 .comment       0x000002e2       0x12 D:/资料/工作资源/ARM7-SDK-2011-05-20/GNU/arm-elf/lib//libc.a(lib_a-makebuf.o)
 .comment       0x000002f4       0x12 D:/资料/工作资源/ARM7-SDK-2011-05-20/GNU/arm-elf/lib//libc.a(lib_a-mallocr.o)
 .comment       0x00000306       0x12 D:/资料/工作资源/ARM7-SDK-2011-05-20/GNU/arm-elf/lib//libc.a(lib_a-mbrtowc.o)
 .comment       0x00000318       0x12 D:/资料/工作资源/ARM7-SDK-2011-05-20/GNU/arm-elf/lib//libc.a(lib_a-mbtowc_r.o)
 .comment       0x0000032a       0x12 D:/资料/工作资源/ARM7-SDK-2011-05-20/GNU/arm-elf/lib//libc.a(lib_a-memchr.o)
 .comment       0x0000033c       0x12 D:/资料/工作资源/ARM7-SDK-2011-05-20/GNU/arm-elf/lib//libc.a(lib_a-memmove.o)
 .comment       0x0000034e       0x12 D:/资料/工作资源/ARM7-SDK-2011-05-20/GNU/arm-elf/lib//libc.a(lib_a-mlock.o)
 .comment       0x00000360       0x12 D:/资料/工作资源/ARM7-SDK-2011-05-20/GNU/arm-elf/lib//libc.a(lib_a-mprec.o)
 .comment       0x00000372       0x12 D:/资料/工作资源/ARM7-SDK-2011-05-20/GNU/arm-elf/lib//libc.a(lib_a-reallocr.o)
 .comment       0x00000384       0x12 D:/资料/工作资源/ARM7-SDK-2011-05-20/GNU/arm-elf/lib//libc.a(lib_a-refill.o)
 .comment       0x00000396       0x12 D:/资料/工作资源/ARM7-SDK-2011-05-20/GNU/arm-elf/lib//libc.a(lib_a-s_isinfd.o)
 .comment       0x000003a8       0x12 D:/资料/工作资源/ARM7-SDK-2011-05-20/GNU/arm-elf/lib//libc.a(lib_a-s_isnand.o)
 .comment       0x000003ba       0x12 D:/资料/工作资源/ARM7-SDK-2011-05-20/GNU/arm-elf/lib//libc.a(lib_a-sccl.o)
 .comment       0x000003cc       0x12 D:/资料/工作资源/ARM7-SDK-2011-05-20/GNU/arm-elf/lib//libc.a(lib_a-sf_nan.o)
 .comment       0x000003de       0x12 D:/资料/工作资源/ARM7-SDK-2011-05-20/GNU/arm-elf/lib//libc.a(lib_a-stdio.o)
 .comment       0x000003f0       0x12 D:/资料/工作资源/ARM7-SDK-2011-05-20/GNU/arm-elf/lib//libc.a(lib_a-strcmp.o)
 .comment       0x00000402       0x12 D:/资料/工作资源/ARM7-SDK-2011-05-20/GNU/arm-elf/lib//libc.a(lib_a-strtod.o)
 .comment       0x00000414       0x12 D:/资料/工作资源/ARM7-SDK-2011-05-20/GNU/arm-elf/lib//libc.a(lib_a-strtol.o)
 .comment       0x00000426       0x12 D:/资料/工作资源/ARM7-SDK-2011-05-20/GNU/arm-elf/lib//libc.a(lib_a-ungetc.o)
 .comment       0x00000438       0x12 D:/资料/工作资源/ARM7-SDK-2011-05-20/GNU/arm-elf/lib//libc.a(lib_a-callocr.o)
 .comment       0x0000044a       0x12 D:/资料/工作资源/ARM7-SDK-2011-05-20/GNU/arm-elf/lib//libc.a(lib_a-fclose.o)
 .comment       0x0000045c       0x12 D:/资料/工作资源/ARM7-SDK-2011-05-20/GNU/arm-elf/lib//libc.a(lib_a-gdtoa-gethex.o)
 .comment       0x0000046e       0x12 D:/资料/工作资源/ARM7-SDK-2011-05-20/GNU/arm-elf/lib//libc.a(lib_a-gdtoa-hexnan.o)
 .comment       0x00000480       0x12 D:/资料/工作资源/ARM7-SDK-2011-05-20/HHFiles/lib//libARMPos.a(libARMPos.o)
 .comment       0x00000492       0x12 D:/资料/工作资源/ARM7-SDK-2011-05-20/HHFiles/lib//libcard.a(libcard.o)
 .comment       0x000004a4       0x12 D:/资料/工作资源/ARM7-SDK-2011-05-20/HHFiles/lib//libcard.a(cpucard.o)
 .comment       0x000004b6       0x12 D:/资料/工作资源/ARM7-SDK-2011-05-20/HHFiles/lib//libcontactless.a(iso14443.o)
 .comment       0x000004c8       0x12 D:/资料/工作资源/ARM7-SDK-2011-05-20/HHFiles/lib//libcontactless.a(mifare.o)
 .comment       0x000004da       0x12 D:/资料/工作资源/ARM7-SDK-2011-05-20/HHFiles/lib//libcontactless.a(port.o)
 .comment       0x000004ec       0x12 D:/资料/工作资源/ARM7-SDK-2011-05-20/HHFiles/lib//libcontactless.a(rcxcomm.o)
 .comment       0x000004fe       0x12 D:/资料/工作资源/ARM7-SDK-2011-05-20/HHFiles/lib//libcontactless.a(rcxreg.o)
 .comment       0x00000510       0x12 D:/资料/工作资源/ARM7-SDK-2011-05-20/HHFiles/lib//libext.a(exlib.o)
 .comment       0x00000522       0x12 D:/资料/工作资源/ARM7-SDK-2011-05-20/HHFiles/lib//libext.a(exlib_pinyin.o)
 .comment       0x00000534       0x12 D:/资料/工作资源/ARM7-SDK-2011-05-20/HHFiles/lib//libWiFi.a(libWiFi.o)
 .comment       0x00000546       0x12 D:/资料/工作资源/ARM7-SDK-2011-05-20/HHFiles/lib//libWiFi.a(CNaNoWiFi.o)
 .comment       0x00000558       0x12 D:/资料/工作资源/ARM7-SDK-2011-05-20/HHFiles/lib//libWiFi.a(Analyse_0.o)
 .comment       0x0000056a       0x12 D:/资料/工作资源/ARM7-SDK-2011-05-20/HHFiles/lib//libWiFi.a(WiFiPubFuncs.o)
 .comment       0x0000057c       0x12 D:/资料/工作资源/ARM7-SDK-2011-05-20/HHFiles/lib//libWiFi.a(ARML.o)
 .comment       0x0000058e       0x12 D:/资料/工作资源/ARM7-SDK-2011-05-20/HHFiles/lib//libWiFi.a(PhyL.o)
 .comment       0x000005a0       0x12 D:/资料/工作资源/ARM7-SDK-2011-05-20/HHFiles/lib//libdb.a(database.o)
 .comment       0x000005b2       0x12 D:/资料/工作资源/ARM7-SDK-2011-05-20/HHFiles/lib//libusb.a(D12ci.o)
 .comment       0x000005c4       0x12 D:/资料/工作资源/ARM7-SDK-2011-05-20/HHFiles/lib//libusb.a(D12Driver.o)
 .comment       0x000005d6       0x12 D:/资料/工作资源/ARM7-SDK-2011-05-20/HHFiles/lib//libusb.a(D12hal.o)
 .comment       0x000005e8       0x12 D:/资料/工作资源/ARM7-SDK-2011-05-20/HHFiles/lib//libusb.a(Chap_9.o)
 .comment       0x000005fa       0x12 D:/资料/工作资源/ARM7-SDK-2011-05-20/HHFiles/lib//libusb.a(Descriptor.o)
 .comment       0x0000060c       0x12 D:/资料/工作资源/ARM7-SDK-2011-05-20/GNU/arm-elf/lib//libc.a(lib_a-atol.o)
 .comment       0x0000061e       0x12 D:/资料/工作资源/ARM7-SDK-2011-05-20/GNU/arm-elf/lib//libc.a(lib_a-memcmp.o)
 .comment       0x00000630       0x12 D:/资料/工作资源/ARM7-SDK-2011-05-20/GNU/arm-elf/lib//libc.a(lib_a-strcat.o)
 .comment       0x00000642       0x12 D:/资料/工作资源/ARM7-SDK-2011-05-20/GNU/arm-elf/lib//libc.a(lib_a-strstr.o)
 .comment       0x00000654       0x12 D:/资料/工作资源/ARM7-SDK-2011-05-20/GNU/arm-elf/lib//libm.a(lib_a-w_pow.o)
 .comment       0x00000666       0x12 D:/资料/工作资源/ARM7-SDK-2011-05-20/GNU/arm-elf/lib//libm.a(lib_a-e_pow.o)
 .comment       0x00000678       0x12 D:/资料/工作资源/ARM7-SDK-2011-05-20/GNU/arm-elf/lib//libm.a(lib_a-e_sqrt.o)
 .comment       0x0000068a       0x12 D:/资料/工作资源/ARM7-SDK-2011-05-20/GNU/arm-elf/lib//libm.a(lib_a-s_fabs.o)
 .comment       0x0000069c       0x12 D:/资料/工作资源/ARM7-SDK-2011-05-20/GNU/arm-elf/lib//libm.a(lib_a-s_finite.o)
 .comment       0x000006ae       0x12 D:/资料/工作资源/ARM7-SDK-2011-05-20/GNU/arm-elf/lib//libm.a(lib_a-s_lib_ver.o)
 .comment       0x000006c0       0x12 D:/资料/工作资源/ARM7-SDK-2011-05-20/GNU/arm-elf/lib//libm.a(lib_a-s_matherr.o)
 .comment       0x000006d2       0x12 D:/资料/工作资源/ARM7-SDK-2011-05-20/GNU/arm-elf/lib//libm.a(lib_a-s_rint.o)
 .comment       0x000006e4       0x12 D:/资料/工作资源/ARM7-SDK-2011-05-20/GNU/arm-elf/lib//libm.a(lib_a-s_scalbn.o)
 .comment       0x000006f6       0x12 D:/资料/工作资源/ARM7-SDK-2011-05-20/GNU/arm-elf/lib//libm.a(lib_a-s_copysign.o)
 .comment       0x00000708       0x12 D:/资料/工作资源/ARM7-SDK-2011-05-20/GNU/arm-elf/lib//libc.a(lib_a-errno.o)

.ARM.attributes
                0x00000000       0x10
 .ARM.attributes
                0x00000000       0x10 D:/项目文件夹/WiFi_Demo/Release/crt0.o
 .ARM.attributes
                0x00000010       0x10 D:/项目文件夹/WiFi_Demo/Release/WiFi_Demo.o
 .ARM.attributes
                0x00000020       0x10 D:/项目文件夹/WiFi_Demo/Release/d_upload.o
 .ARM.attributes
                0x00000030       0x10 D:/项目文件夹/WiFi_Demo/Release/fun.o
 .ARM.attributes
                0x00000040       0x10 D:/项目文件夹/WiFi_Demo/Release/macset.o
 .ARM.attributes
                0x00000050       0x10 D:/项目文件夹/WiFi_Demo/Release/vst_db.o
 .ARM.attributes
                0x00000060       0x10 D:/项目文件夹/WiFi_Demo/Release/wifi_con.o
 .ARM.attributes
                0x00000070       0x10 D:/项目文件夹/WiFi_Demo/Release/eeprom.o
 .ARM.attributes
                0x00000080       0x10 D:/项目文件夹/WiFi_Demo/Release/mifare.o
 .ARM.attributes
                0x00000090       0x10 D:/项目文件夹/WiFi_Demo/Release/cal_key.o
 .ARM.attributes
                0x000000a0       0x10 D:/项目文件夹/WiFi_Demo/Release/usbprog.o
 .ARM.attributes
                0x000000b0       0x10 D:/项目文件夹/WiFi_Demo/Release/db.o
 .ARM.attributes
                0x000000c0       0x10 D:/项目文件夹/WiFi_Demo/Release/iso8583.o
 .ARM.attributes
                0x000000d0       0x10 D:/项目文件夹/WiFi_Demo/Release/cpu_card.o
 .ARM.attributes
                0x000000e0       0x10 D:/资料/工作资源/ARM7-SDK-2011-05-20/GNU/arm-elf/lib//libc.a(lib_a-fprintf.o)
 .ARM.attributes
                0x000000f0       0x10 D:/资料/工作资源/ARM7-SDK-2011-05-20/GNU/arm-elf/lib//libc.a(lib_a-memcpy.o)
 .ARM.attributes
                0x00000100       0x10 D:/资料/工作资源/ARM7-SDK-2011-05-20/GNU/arm-elf/lib//libc.a(lib_a-memset.o)
 .ARM.attributes
                0x00000110       0x10 D:/资料/工作资源/ARM7-SDK-2011-05-20/GNU/arm-elf/lib//libc.a(lib_a-sprintf.o)
 .ARM.attributes
                0x00000120       0x10 D:/资料/工作资源/ARM7-SDK-2011-05-20/GNU/arm-elf/lib//libc.a(lib_a-sscanf.o)
 .ARM.attributes
                0x00000130       0x10 D:/资料/工作资源/ARM7-SDK-2011-05-20/GNU/arm-elf/lib//libc.a(lib_a-strcpy.o)
 .ARM.attributes
                0x00000140       0x10 D:/资料/工作资源/ARM7-SDK-2011-05-20/GNU/arm-elf/lib//libc.a(lib_a-strlen.o)
 .ARM.attributes
                0x00000150       0x10 D:/资料/工作资源/ARM7-SDK-2011-05-20/GNU/arm-elf/lib//libc.a(lib_a-strncmp.o)
 .ARM.attributes
                0x00000160       0x10 D:/资料/工作资源/ARM7-SDK-2011-05-20/GNU/arm-elf/lib//libc.a(lib_a-strncpy.o)
 .ARM.attributes
                0x00000170       0x10 D:/资料/工作资源/ARM7-SDK-2011-05-20/GNU/arm-elf/lib//libc.a(lib_a-strtoul.o)
 .ARM.attributes
                0x00000180       0x10 D:/资料/工作资源/ARM7-SDK-2011-05-20/GNU/arm-elf/lib//libc.a(lib_a-vfprintf.o)
 .ARM.attributes
                0x00000190       0x10 D:/资料/工作资源/ARM7-SDK-2011-05-20/GNU/arm-elf/lib//libc.a(lib_a-vfscanf.o)
 .ARM.attributes
                0x000001a0       0x10 D:/资料/工作资源/ARM7-SDK-2011-05-20/GNU/arm-elf/lib//libc.a(lib_a-wcrtomb.o)
 .ARM.attributes
                0x000001b0       0x10 D:/资料/工作资源/ARM7-SDK-2011-05-20/GNU/arm-elf/lib//libc.a(lib_a-wcsrtombs.o)
 .ARM.attributes
                0x000001c0       0x10 D:/资料/工作资源/ARM7-SDK-2011-05-20/GNU/arm-elf/lib//libc.a(lib_a-wctomb_r.o)
 .ARM.attributes
                0x000001d0       0x10 D:/资料/工作资源/ARM7-SDK-2011-05-20/GNU/arm-elf/lib//libc.a(lib_a-wsetup.o)
 .ARM.attributes
                0x000001e0       0x10 D:/资料/工作资源/ARM7-SDK-2011-05-20/GNU/arm-elf/lib//libc.a(lib_a-ctype_.o)
 .ARM.attributes
                0x000001f0       0x10 D:/资料/工作资源/ARM7-SDK-2011-05-20/GNU/arm-elf/lib//libc.a(lib_a-dtoa.o)
 .ARM.attributes
                0x00000200       0x10 D:/资料/工作资源/ARM7-SDK-2011-05-20/GNU/arm-elf/lib//libc.a(lib_a-fflush.o)
 .ARM.attributes
                0x00000210       0x10 D:/资料/工作资源/ARM7-SDK-2011-05-20/GNU/arm-elf/lib//libc.a(lib_a-findfp.o)
 .ARM.attributes
                0x00000220       0x10 D:/资料/工作资源/ARM7-SDK-2011-05-20/GNU/arm-elf/lib//libc.a(lib_a-fread.o)
 .ARM.attributes
                0x00000230       0x10 D:/资料/工作资源/ARM7-SDK-2011-05-20/GNU/arm-elf/lib//libc.a(lib_a-freer.o)
 .ARM.attributes
                0x00000240       0x10 D:/资料/工作资源/ARM7-SDK-2011-05-20/GNU/arm-elf/lib//libc.a(lib_a-fvwrite.o)
 .ARM.attributes
                0x00000250       0x10 D:/资料/工作资源/ARM7-SDK-2011-05-20/GNU/arm-elf/lib//libc.a(lib_a-fwalk.o)
 .ARM.attributes
                0x00000260       0x10 D:/资料/工作资源/ARM7-SDK-2011-05-20/GNU/arm-elf/lib//libc.a(lib_a-impure.o)
 .ARM.attributes
                0x00000270       0x10 D:/资料/工作资源/ARM7-SDK-2011-05-20/GNU/arm-elf/lib//libc.a(lib_a-iswspace.o)
 .ARM.attributes
                0x00000280       0x10 D:/资料/工作资源/ARM7-SDK-2011-05-20/GNU/arm-elf/lib//libc.a(lib_a-locale.o)
 .ARM.attributes
                0x00000290       0x10 D:/资料/工作资源/ARM7-SDK-2011-05-20/GNU/arm-elf/lib//libc.a(lib_a-makebuf.o)
 .ARM.attributes
                0x000002a0       0x10 D:/资料/工作资源/ARM7-SDK-2011-05-20/GNU/arm-elf/lib//libc.a(lib_a-mallocr.o)
 .ARM.attributes
                0x000002b0       0x10 D:/资料/工作资源/ARM7-SDK-2011-05-20/GNU/arm-elf/lib//libc.a(lib_a-mbrtowc.o)
 .ARM.attributes
                0x000002c0       0x10 D:/资料/工作资源/ARM7-SDK-2011-05-20/GNU/arm-elf/lib//libc.a(lib_a-mbtowc_r.o)
 .ARM.attributes
                0x000002d0       0x10 D:/资料/工作资源/ARM7-SDK-2011-05-20/GNU/arm-elf/lib//libc.a(lib_a-memchr.o)
 .ARM.attributes
                0x000002e0       0x10 D:/资料/工作资源/ARM7-SDK-2011-05-20/GNU/arm-elf/lib//libc.a(lib_a-memmove.o)
 .ARM.attributes
                0x000002f0       0x10 D:/资料/工作资源/ARM7-SDK-2011-05-20/GNU/arm-elf/lib//libc.a(lib_a-mlock.o)
 .ARM.attributes
                0x00000300       0x10 D:/资料/工作资源/ARM7-SDK-2011-05-20/GNU/arm-elf/lib//libc.a(lib_a-mprec.o)
 .ARM.attributes
                0x00000310       0x10 D:/资料/工作资源/ARM7-SDK-2011-05-20/GNU/arm-elf/lib//libc.a(lib_a-reallocr.o)
 .ARM.attributes
                0x00000320       0x10 D:/资料/工作资源/ARM7-SDK-2011-05-20/GNU/arm-elf/lib//libc.a(lib_a-refill.o)
 .ARM.attributes
                0x00000330       0x10 D:/资料/工作资源/ARM7-SDK-2011-05-20/GNU/arm-elf/lib//libc.a(lib_a-s_isinfd.o)
 .ARM.attributes
                0x00000340       0x10 D:/资料/工作资源/ARM7-SDK-2011-05-20/GNU/arm-elf/lib//libc.a(lib_a-s_isnand.o)
 .ARM.attributes
                0x00000350       0x10 D:/资料/工作资源/ARM7-SDK-2011-05-20/GNU/arm-elf/lib//libc.a(lib_a-sccl.o)
 .ARM.attributes
                0x00000360       0x10 D:/资料/工作资源/ARM7-SDK-2011-05-20/GNU/arm-elf/lib//libc.a(lib_a-sf_nan.o)
 .ARM.attributes
                0x00000370       0x10 D:/资料/工作资源/ARM7-SDK-2011-05-20/GNU/arm-elf/lib//libc.a(lib_a-stdio.o)
 .ARM.attributes
                0x00000380       0x10 D:/资料/工作资源/ARM7-SDK-2011-05-20/GNU/arm-elf/lib//libc.a(lib_a-strcmp.o)
 .ARM.attributes
                0x00000390       0x10 D:/资料/工作资源/ARM7-SDK-2011-05-20/GNU/arm-elf/lib//libc.a(lib_a-strtod.o)
 .ARM.attributes
                0x000003a0       0x10 D:/资料/工作资源/ARM7-SDK-2011-05-20/GNU/arm-elf/lib//libc.a(lib_a-strtol.o)
 .ARM.attributes
                0x000003b0       0x10 D:/资料/工作资源/ARM7-SDK-2011-05-20/GNU/arm-elf/lib//libc.a(lib_a-ungetc.o)
 .ARM.attributes
                0x000003c0       0x10 D:/资料/工作资源/ARM7-SDK-2011-05-20/GNU/arm-elf/lib//libc.a(lib_a-callocr.o)
 .ARM.attributes
                0x000003d0       0x10 D:/资料/工作资源/ARM7-SDK-2011-05-20/GNU/arm-elf/lib//libc.a(lib_a-fclose.o)
 .ARM.attributes
                0x000003e0       0x10 D:/资料/工作资源/ARM7-SDK-2011-05-20/GNU/arm-elf/lib//libc.a(lib_a-gdtoa-gethex.o)
 .ARM.attributes
                0x000003f0       0x10 D:/资料/工作资源/ARM7-SDK-2011-05-20/GNU/arm-elf/lib//libc.a(lib_a-gdtoa-hexnan.o)
 .ARM.attributes
                0x00000400       0x10 D:/资料/工作资源/ARM7-SDK-2011-05-20/HHFiles/lib//libARMPos.a(libARMPos.o)
 .ARM.attributes
                0x00000410       0x10 D:/资料/工作资源/ARM7-SDK-2011-05-20/HHFiles/lib//libARMPos.a(call_api.o)
 .ARM.attributes
                0x00000420       0x10 D:/资料/工作资源/ARM7-SDK-2011-05-20/HHFiles/lib//libcard.a(libcard.o)
 .ARM.attributes
                0x00000430       0x10 D:/资料/工作资源/ARM7-SDK-2011-05-20/HHFiles/lib//libcard.a(cpucard.o)
 .ARM.attributes
                0x00000440       0x10 D:/资料/工作资源/ARM7-SDK-2011-05-20/HHFiles/lib//libcontactless.a(iso14443.o)
 .ARM.attributes
                0x00000450       0x10 D:/资料/工作资源/ARM7-SDK-2011-05-20/HHFiles/lib//libcontactless.a(mifare.o)
 .ARM.attributes
                0x00000460       0x10 D:/资料/工作资源/ARM7-SDK-2011-05-20/HHFiles/lib//libcontactless.a(port.o)
 .ARM.attributes
                0x00000470       0x10 D:/资料/工作资源/ARM7-SDK-2011-05-20/HHFiles/lib//libcontactless.a(rcxcomm.o)
 .ARM.attributes
                0x00000480       0x10 D:/资料/工作资源/ARM7-SDK-2011-05-20/HHFiles/lib//libcontactless.a(rcxreg.o)
 .ARM.attributes
                0x00000490       0x10 D:/资料/工作资源/ARM7-SDK-2011-05-20/HHFiles/lib//libext.a(exlib.o)
 .ARM.attributes
                0x000004a0       0x10 D:/资料/工作资源/ARM7-SDK-2011-05-20/HHFiles/lib//libext.a(exlib_pinyin.o)
 .ARM.attributes
                0x000004b0       0x10 D:/资料/工作资源/ARM7-SDK-2011-05-20/HHFiles/lib//libWiFi.a(libWiFi.o)
 .ARM.attributes
                0x000004c0       0x10 D:/资料/工作资源/ARM7-SDK-2011-05-20/HHFiles/lib//libWiFi.a(CNaNoWiFi.o)
 .ARM.attributes
                0x000004d0       0x10 D:/资料/工作资源/ARM7-SDK-2011-05-20/HHFiles/lib//libWiFi.a(Analyse_0.o)
 .ARM.attributes
                0x000004e0       0x10 D:/资料/工作资源/ARM7-SDK-2011-05-20/HHFiles/lib//libWiFi.a(WiFiPubFuncs.o)
 .ARM.attributes
                0x000004f0       0x10 D:/资料/工作资源/ARM7-SDK-2011-05-20/HHFiles/lib//libWiFi.a(ARML.o)
 .ARM.attributes
                0x00000500       0x10 D:/资料/工作资源/ARM7-SDK-2011-05-20/HHFiles/lib//libWiFi.a(PhyL.o)
 .ARM.attributes
                0x00000510       0x10 D:/资料/工作资源/ARM7-SDK-2011-05-20/HHFiles/lib//libdb.a(database.o)
 .ARM.attributes
                0x00000520       0x10 D:/资料/工作资源/ARM7-SDK-2011-05-20/HHFiles/lib//libusb.a(D12ci.o)
 .ARM.attributes
                0x00000530       0x10 D:/资料/工作资源/ARM7-SDK-2011-05-20/HHFiles/lib//libusb.a(D12Driver.o)
 .ARM.attributes
                0x00000540       0x10 D:/资料/工作资源/ARM7-SDK-2011-05-20/HHFiles/lib//libusb.a(D12hal.o)
 .ARM.attributes
                0x00000550       0x10 D:/资料/工作资源/ARM7-SDK-2011-05-20/HHFiles/lib//libusb.a(Chap_9.o)
 .ARM.attributes
                0x00000560       0x10 D:/资料/工作资源/ARM7-SDK-2011-05-20/HHFiles/lib//libusb.a(Descriptor.o)
 .ARM.attributes
                0x00000570       0x10 D:/资料/工作资源/ARM7-SDK-2011-05-20/GNU/arm-elf/lib//libgcc.a(_udivsi3.o)
 .ARM.attributes
                0x00000580       0x10 D:/资料/工作资源/ARM7-SDK-2011-05-20/GNU/arm-elf/lib//libgcc.a(_divsi3.o)
 .ARM.attributes
                0x00000590       0x10 D:/资料/工作资源/ARM7-SDK-2011-05-20/GNU/arm-elf/lib//libgcc.a(_umodsi3.o)
 .ARM.attributes
                0x000005a0       0x10 D:/资料/工作资源/ARM7-SDK-2011-05-20/GNU/arm-elf/lib//libgcc.a(_modsi3.o)
 .ARM.attributes
                0x000005b0       0x10 D:/资料/工作资源/ARM7-SDK-2011-05-20/GNU/arm-elf/lib//libgcc.a(_dvmd_tls.o)
 .ARM.attributes
                0x000005c0       0x10 D:/资料/工作资源/ARM7-SDK-2011-05-20/GNU/arm-elf/lib//libgcc.a(_addsubdf3.o)
 .ARM.attributes
                0x000005d0       0x10 D:/资料/工作资源/ARM7-SDK-2011-05-20/GNU/arm-elf/lib//libgcc.a(_muldivdf3.o)
 .ARM.attributes
                0x000005e0       0x10 D:/资料/工作资源/ARM7-SDK-2011-05-20/GNU/arm-elf/lib//libgcc.a(_cmpdf2.o)
 .ARM.attributes
                0x000005f0       0x10 D:/资料/工作资源/ARM7-SDK-2011-05-20/GNU/arm-elf/lib//libgcc.a(_fixdfsi.o)
 .ARM.attributes
                0x00000600       0x10 D:/资料/工作资源/ARM7-SDK-2011-05-20/GNU/arm-elf/lib//libgcc.a(_fixunsdfsi.o)
 .ARM.attributes
                0x00000610       0x10 D:/资料/工作资源/ARM7-SDK-2011-05-20/GNU/arm-elf/lib//libgcc.a(_truncdfsf2.o)
 .ARM.attributes
                0x00000620       0x10 D:/资料/工作资源/ARM7-SDK-2011-05-20/GNU/arm-elf/lib//libc.a(lib_a-atol.o)
 .ARM.attributes
                0x00000630       0x10 D:/资料/工作资源/ARM7-SDK-2011-05-20/GNU/arm-elf/lib//libc.a(lib_a-memcmp.o)
 .ARM.attributes
                0x00000640       0x10 D:/资料/工作资源/ARM7-SDK-2011-05-20/GNU/arm-elf/lib//libc.a(lib_a-strcat.o)
 .ARM.attributes
                0x00000650       0x10 D:/资料/工作资源/ARM7-SDK-2011-05-20/GNU/arm-elf/lib//libc.a(lib_a-strstr.o)
 .ARM.attributes
                0x00000660       0x10 D:/资料/工作资源/ARM7-SDK-2011-05-20/GNU/arm-elf/lib//libm.a(lib_a-w_pow.o)
 .ARM.attributes
                0x00000670       0x10 D:/资料/工作资源/ARM7-SDK-2011-05-20/GNU/arm-elf/lib//libm.a(lib_a-e_pow.o)
 .ARM.attributes
                0x00000680       0x10 D:/资料/工作资源/ARM7-SDK-2011-05-20/GNU/arm-elf/lib//libm.a(lib_a-e_sqrt.o)
 .ARM.attributes
                0x00000690       0x10 D:/资料/工作资源/ARM7-SDK-2011-05-20/GNU/arm-elf/lib//libm.a(lib_a-s_fabs.o)
 .ARM.attributes
                0x000006a0       0x10 D:/资料/工作资源/ARM7-SDK-2011-05-20/GNU/arm-elf/lib//libm.a(lib_a-s_finite.o)
 .ARM.attributes
                0x000006b0       0x10 D:/资料/工作资源/ARM7-SDK-2011-05-20/GNU/arm-elf/lib//libm.a(lib_a-s_lib_ver.o)
 .ARM.attributes
                0x000006c0       0x10 D:/资料/工作资源/ARM7-SDK-2011-05-20/GNU/arm-elf/lib//libm.a(lib_a-s_matherr.o)
 .ARM.attributes
                0x000006d0       0x10 D:/资料/工作资源/ARM7-SDK-2011-05-20/GNU/arm-elf/lib//libm.a(lib_a-s_rint.o)
 .ARM.attributes
                0x000006e0       0x10 D:/资料/工作资源/ARM7-SDK-2011-05-20/GNU/arm-elf/lib//libm.a(lib_a-s_scalbn.o)
 .ARM.attributes
                0x000006f0       0x10 D:/资料/工作资源/ARM7-SDK-2011-05-20/GNU/arm-elf/lib//libm.a(lib_a-s_copysign.o)
 .ARM.attributes
                0x00000700       0x10 D:/资料/工作资源/ARM7-SDK-2011-05-20/GNU/arm-elf/lib//libc.a(lib_a-errno.o)

.debug_abbrev   0x00000000     0x5b18
 .debug_abbrev  0x00000000      0x1a1 D:/资料/工作资源/ARM7-SDK-2011-05-20/GNU/arm-elf/lib//libc.a(lib_a-fprintf.o)
 .debug_abbrev  0x000001a1       0x99 D:/资料/工作资源/ARM7-SDK-2011-05-20/GNU/arm-elf/lib//libc.a(lib_a-memcpy.o)
 .debug_abbrev  0x0000023a       0xb2 D:/资料/工作资源/ARM7-SDK-2011-05-20/GNU/arm-elf/lib//libc.a(lib_a-memset.o)
 .debug_abbrev  0x000002ec      0x1c1 D:/资料/工作资源/ARM7-SDK-2011-05-20/GNU/arm-elf/lib//libc.a(lib_a-sprintf.o)
 .debug_abbrev  0x000004ad      0x1e7 D:/资料/工作资源/ARM7-SDK-2011-05-20/GNU/arm-elf/lib//libc.a(lib_a-sscanf.o)
 .debug_abbrev  0x00000694       0x98 D:/资料/工作资源/ARM7-SDK-2011-05-20/GNU/arm-elf/lib//libc.a(lib_a-strcpy.o)
 .debug_abbrev  0x0000072c       0x94 D:/资料/工作资源/ARM7-SDK-2011-05-20/GNU/arm-elf/lib//libc.a(lib_a-strlen.o)
 .debug_abbrev  0x000007c0       0x87 D:/资料/工作资源/ARM7-SDK-2011-05-20/GNU/arm-elf/lib//libc.a(lib_a-strncmp.o)
 .debug_abbrev  0x00000847       0xa5 D:/资料/工作资源/ARM7-SDK-2011-05-20/GNU/arm-elf/lib//libc.a(lib_a-strncpy.o)
 .debug_abbrev  0x000008ec      0x1c4 D:/资料/工作资源/ARM7-SDK-2011-05-20/GNU/arm-elf/lib//libc.a(lib_a-strtoul.o)
 .debug_abbrev  0x00000ab0      0x379 D:/资料/工作资源/ARM7-SDK-2011-05-20/GNU/arm-elf/lib//libc.a(lib_a-vfprintf.o)
 .debug_abbrev  0x00000e29      0x28f D:/资料/工作资源/ARM7-SDK-2011-05-20/GNU/arm-elf/lib//libc.a(lib_a-vfscanf.o)
 .debug_abbrev  0x000010b8      0x197 D:/资料/工作资源/ARM7-SDK-2011-05-20/GNU/arm-elf/lib//libc.a(lib_a-wcrtomb.o)
 .debug_abbrev  0x0000124f      0x1ba D:/资料/工作资源/ARM7-SDK-2011-05-20/GNU/arm-elf/lib//libc.a(lib_a-wcsrtombs.o)
 .debug_abbrev  0x00001409      0x1b4 D:/资料/工作资源/ARM7-SDK-2011-05-20/GNU/arm-elf/lib//libc.a(lib_a-wctomb_r.o)
 .debug_abbrev  0x000015bd      0x179 D:/资料/工作资源/ARM7-SDK-2011-05-20/GNU/arm-elf/lib//libc.a(lib_a-wsetup.o)
 .debug_abbrev  0x00001736       0x5b D:/资料/工作资源/ARM7-SDK-2011-05-20/GNU/arm-elf/lib//libc.a(lib_a-ctype_.o)
 .debug_abbrev  0x00001791      0x22c D:/资料/工作资源/ARM7-SDK-2011-05-20/GNU/arm-elf/lib//libc.a(lib_a-dtoa.o)
 .debug_abbrev  0x000019bd      0x19e D:/资料/工作资源/ARM7-SDK-2011-05-20/GNU/arm-elf/lib//libc.a(lib_a-fflush.o)
 .debug_abbrev  0x00001b5b      0x28a D:/资料/工作资源/ARM7-SDK-2011-05-20/GNU/arm-elf/lib//libc.a(lib_a-findfp.o)
 .debug_abbrev  0x00001de5      0x1d0 D:/资料/工作资源/ARM7-SDK-2011-05-20/GNU/arm-elf/lib//libc.a(lib_a-fread.o)
 .debug_abbrev  0x00001fb5      0x200 D:/资料/工作资源/ARM7-SDK-2011-05-20/GNU/arm-elf/lib//libc.a(lib_a-freer.o)
 .debug_abbrev  0x000021b5      0x1bd D:/资料/工作资源/ARM7-SDK-2011-05-20/GNU/arm-elf/lib//libc.a(lib_a-fvwrite.o)
 .debug_abbrev  0x00002372      0x1f7 D:/资料/工作资源/ARM7-SDK-2011-05-20/GNU/arm-elf/lib//libc.a(lib_a-fwalk.o)
 .debug_abbrev  0x00002569      0x160 D:/资料/工作资源/ARM7-SDK-2011-05-20/GNU/arm-elf/lib//libc.a(lib_a-impure.o)
 .debug_abbrev  0x000026c9       0xa8 D:/资料/工作资源/ARM7-SDK-2011-05-20/GNU/arm-elf/lib//libc.a(lib_a-iswspace.o)
 .debug_abbrev  0x00002771      0x1f0 D:/资料/工作资源/ARM7-SDK-2011-05-20/GNU/arm-elf/lib//libc.a(lib_a-locale.o)
 .debug_abbrev  0x00002961      0x1a4 D:/资料/工作资源/ARM7-SDK-2011-05-20/GNU/arm-elf/lib//libc.a(lib_a-makebuf.o)
 .debug_abbrev  0x00002b05      0x22e D:/资料/工作资源/ARM7-SDK-2011-05-20/GNU/arm-elf/lib//libc.a(lib_a-mallocr.o)
 .debug_abbrev  0x00002d33      0x188 D:/资料/工作资源/ARM7-SDK-2011-05-20/GNU/arm-elf/lib//libc.a(lib_a-mbrtowc.o)
 .debug_abbrev  0x00002ebb      0x1a2 D:/资料/工作资源/ARM7-SDK-2011-05-20/GNU/arm-elf/lib//libc.a(lib_a-mbtowc_r.o)
 .debug_abbrev  0x0000305d       0xbe D:/资料/工作资源/ARM7-SDK-2011-05-20/GNU/arm-elf/lib//libc.a(lib_a-memchr.o)
 .debug_abbrev  0x0000311b       0xa2 D:/资料/工作资源/ARM7-SDK-2011-05-20/GNU/arm-elf/lib//libc.a(lib_a-memmove.o)
 .debug_abbrev  0x000031bd      0x173 D:/资料/工作资源/ARM7-SDK-2011-05-20/GNU/arm-elf/lib//libc.a(lib_a-mlock.o)
 .debug_abbrev  0x00003330      0x2af D:/资料/工作资源/ARM7-SDK-2011-05-20/GNU/arm-elf/lib//libc.a(lib_a-mprec.o)
 .debug_abbrev  0x000035df      0x1fc D:/资料/工作资源/ARM7-SDK-2011-05-20/GNU/arm-elf/lib//libc.a(lib_a-reallocr.o)
 .debug_abbrev  0x000037db      0x190 D:/资料/工作资源/ARM7-SDK-2011-05-20/GNU/arm-elf/lib//libc.a(lib_a-refill.o)
 .debug_abbrev  0x0000396b       0xdd D:/资料/工作资源/ARM7-SDK-2011-05-20/GNU/arm-elf/lib//libc.a(lib_a-s_isinfd.o)
 .debug_abbrev  0x00003a48       0xdd D:/资料/工作资源/ARM7-SDK-2011-05-20/GNU/arm-elf/lib//libc.a(lib_a-s_isnand.o)
 .debug_abbrev  0x00003b25       0x9c D:/资料/工作资源/ARM7-SDK-2011-05-20/GNU/arm-elf/lib//libc.a(lib_a-sccl.o)
 .debug_abbrev  0x00003bc1       0x76 D:/资料/工作资源/ARM7-SDK-2011-05-20/GNU/arm-elf/lib//libc.a(lib_a-sf_nan.o)
 .debug_abbrev  0x00003c37      0x1bd D:/资料/工作资源/ARM7-SDK-2011-05-20/GNU/arm-elf/lib//libc.a(lib_a-stdio.o)
 .debug_abbrev  0x00003df4       0x7a D:/资料/工作资源/ARM7-SDK-2011-05-20/GNU/arm-elf/lib//libc.a(lib_a-strcmp.o)
 .debug_abbrev  0x00003e6e      0x30c D:/资料/工作资源/ARM7-SDK-2011-05-20/GNU/arm-elf/lib//libc.a(lib_a-strtod.o)
 .debug_abbrev  0x0000417a      0x1c6 D:/资料/工作资源/ARM7-SDK-2011-05-20/GNU/arm-elf/lib//libc.a(lib_a-strtol.o)
 .debug_abbrev  0x00004340      0x1b0 D:/资料/工作资源/ARM7-SDK-2011-05-20/GNU/arm-elf/lib//libc.a(lib_a-ungetc.o)
 .debug_abbrev  0x000044f0      0x1c7 D:/资料/工作资源/ARM7-SDK-2011-05-20/GNU/arm-elf/lib//libc.a(lib_a-callocr.o)
 .debug_abbrev  0x000046b7      0x1b0 D:/资料/工作资源/ARM7-SDK-2011-05-20/GNU/arm-elf/lib//libc.a(lib_a-fclose.o)
 .debug_abbrev  0x00004867      0x2a7 D:/资料/工作资源/ARM7-SDK-2011-05-20/GNU/arm-elf/lib//libc.a(lib_a-gdtoa-gethex.o)
 .debug_abbrev  0x00004b0e      0x136 D:/资料/工作资源/ARM7-SDK-2011-05-20/GNU/arm-elf/lib//libc.a(lib_a-gdtoa-hexnan.o)
 .debug_abbrev  0x00004c44       0x14 D:/资料/工作资源/ARM7-SDK-2011-05-20/GNU/arm-elf/lib//libgcc.a(_udivsi3.o)
 .debug_abbrev  0x00004c58       0x14 D:/资料/工作资源/ARM7-SDK-2011-05-20/GNU/arm-elf/lib//libgcc.a(_divsi3.o)
 .debug_abbrev  0x00004c6c       0x14 D:/资料/工作资源/ARM7-SDK-2011-05-20/GNU/arm-elf/lib//libgcc.a(_umodsi3.o)
 .debug_abbrev  0x00004c80       0x14 D:/资料/工作资源/ARM7-SDK-2011-05-20/GNU/arm-elf/lib//libgcc.a(_modsi3.o)
 .debug_abbrev  0x00004c94       0x14 D:/资料/工作资源/ARM7-SDK-2011-05-20/GNU/arm-elf/lib//libgcc.a(_dvmd_tls.o)
 .debug_abbrev  0x00004ca8       0x14 D:/资料/工作资源/ARM7-SDK-2011-05-20/GNU/arm-elf/lib//libgcc.a(_addsubdf3.o)
 .debug_abbrev  0x00004cbc       0x14 D:/资料/工作资源/ARM7-SDK-2011-05-20/GNU/arm-elf/lib//libgcc.a(_muldivdf3.o)
 .debug_abbrev  0x00004cd0       0x14 D:/资料/工作资源/ARM7-SDK-2011-05-20/GNU/arm-elf/lib//libgcc.a(_cmpdf2.o)
 .debug_abbrev  0x00004ce4       0x14 D:/资料/工作资源/ARM7-SDK-2011-05-20/GNU/arm-elf/lib//libgcc.a(_fixdfsi.o)
 .debug_abbrev  0x00004cf8       0x14 D:/资料/工作资源/ARM7-SDK-2011-05-20/GNU/arm-elf/lib//libgcc.a(_fixunsdfsi.o)
 .debug_abbrev  0x00004d0c       0x14 D:/资料/工作资源/ARM7-SDK-2011-05-20/GNU/arm-elf/lib//libgcc.a(_truncdfsf2.o)
 .debug_abbrev  0x00004d20      0x17f D:/资料/工作资源/ARM7-SDK-2011-05-20/GNU/arm-elf/lib//libc.a(lib_a-atol.o)
 .debug_abbrev  0x00004e9f       0x94 D:/资料/工作资源/ARM7-SDK-2011-05-20/GNU/arm-elf/lib//libc.a(lib_a-memcmp.o)
 .debug_abbrev  0x00004f33       0x90 D:/资料/工作资源/ARM7-SDK-2011-05-20/GNU/arm-elf/lib//libc.a(lib_a-strcat.o)
 .debug_abbrev  0x00004fc3       0x9d D:/资料/工作资源/ARM7-SDK-2011-05-20/GNU/arm-elf/lib//libc.a(lib_a-strstr.o)
 .debug_abbrev  0x00005060       0xf9 D:/资料/工作资源/ARM7-SDK-2011-05-20/GNU/arm-elf/lib//libm.a(lib_a-w_pow.o)
 .debug_abbrev  0x00005159      0x166 D:/资料/工作资源/ARM7-SDK-2011-05-20/GNU/arm-elf/lib//libm.a(lib_a-e_pow.o)
 .debug_abbrev  0x000052bf      0x129 D:/资料/工作资源/ARM7-SDK-2011-05-20/GNU/arm-elf/lib//libm.a(lib_a-e_sqrt.o)
 .debug_abbrev  0x000053e8       0xd5 D:/资料/工作资源/ARM7-SDK-2011-05-20/GNU/arm-elf/lib//libm.a(lib_a-s_fabs.o)
 .debug_abbrev  0x000054bd       0xcc D:/资料/工作资源/ARM7-SDK-2011-05-20/GNU/arm-elf/lib//libm.a(lib_a-s_finite.o)
 .debug_abbrev  0x00005589       0x5c D:/资料/工作资源/ARM7-SDK-2011-05-20/GNU/arm-elf/lib//libm.a(lib_a-s_lib_ver.o)
 .debug_abbrev  0x000055e5       0x9e D:/资料/工作资源/ARM7-SDK-2011-05-20/GNU/arm-elf/lib//libm.a(lib_a-s_matherr.o)
 .debug_abbrev  0x00005683      0x131 D:/资料/工作资源/ARM7-SDK-2011-05-20/GNU/arm-elf/lib//libm.a(lib_a-s_rint.o)
 .debug_abbrev  0x000057b4      0x116 D:/资料/工作资源/ARM7-SDK-2011-05-20/GNU/arm-elf/lib//libm.a(lib_a-s_scalbn.o)
 .debug_abbrev  0x000058ca       0xe6 D:/资料/工作资源/ARM7-SDK-2011-05-20/GNU/arm-elf/lib//libm.a(lib_a-s_copysign.o)
 .debug_abbrev  0x000059b0      0x168 D:/资料/工作资源/ARM7-SDK-2011-05-20/GNU/arm-elf/lib//libc.a(lib_a-errno.o)

.debug_info     0x00000000    0x1bcae
 .debug_info    0x00000000      0x96c D:/资料/工作资源/ARM7-SDK-2011-05-20/GNU/arm-elf/lib//libc.a(lib_a-fprintf.o)
 .debug_info    0x0000096c      0x10e D:/资料/工作资源/ARM7-SDK-2011-05-20/GNU/arm-elf/lib//libc.a(lib_a-memcpy.o)
 .debug_info    0x00000a7a      0x10a D:/资料/工作资源/ARM7-SDK-2011-05-20/GNU/arm-elf/lib//libc.a(lib_a-memset.o)
 .debug_info    0x00000b84      0xa00 D:/资料/工作资源/ARM7-SDK-2011-05-20/GNU/arm-elf/lib//libc.a(lib_a-sprintf.o)
 .debug_info    0x00001584      0xa48 D:/资料/工作资源/ARM7-SDK-2011-05-20/GNU/arm-elf/lib//libc.a(lib_a-sscanf.o)
 .debug_info    0x00001fcc       0xff D:/资料/工作资源/ARM7-SDK-2011-05-20/GNU/arm-elf/lib//libc.a(lib_a-strcpy.o)
 .debug_info    0x000020cb       0xd0 D:/资料/工作资源/ARM7-SDK-2011-05-20/GNU/arm-elf/lib//libc.a(lib_a-strlen.o)
 .debug_info    0x0000219b       0xee D:/资料/工作资源/ARM7-SDK-2011-05-20/GNU/arm-elf/lib//libc.a(lib_a-strncmp.o)
 .debug_info    0x00002289      0x121 D:/资料/工作资源/ARM7-SDK-2011-05-20/GNU/arm-elf/lib//libc.a(lib_a-strncpy.o)
 .debug_info    0x000023aa      0xa03 D:/资料/工作资源/ARM7-SDK-2011-05-20/GNU/arm-elf/lib//libc.a(lib_a-strtoul.o)
 .debug_info    0x00002dad     0x1131 D:/资料/工作资源/ARM7-SDK-2011-05-20/GNU/arm-elf/lib//libc.a(lib_a-vfprintf.o)
 .debug_info    0x00003ede      0xe27 D:/资料/工作资源/ARM7-SDK-2011-05-20/GNU/arm-elf/lib//libc.a(lib_a-vfscanf.o)
 .debug_info    0x00004d05      0x9eb D:/资料/工作资源/ARM7-SDK-2011-05-20/GNU/arm-elf/lib//libc.a(lib_a-wcrtomb.o)
 .debug_info    0x000056f0      0xa7c D:/资料/工作资源/ARM7-SDK-2011-05-20/GNU/arm-elf/lib//libc.a(lib_a-wcsrtombs.o)
 .debug_info    0x0000616c      0x9f3 D:/资料/工作资源/ARM7-SDK-2011-05-20/GNU/arm-elf/lib//libc.a(lib_a-wctomb_r.o)
 .debug_info    0x00006b5f      0x936 D:/资料/工作资源/ARM7-SDK-2011-05-20/GNU/arm-elf/lib//libc.a(lib_a-wsetup.o)
 .debug_info    0x00007495       0x75 D:/资料/工作资源/ARM7-SDK-2011-05-20/GNU/arm-elf/lib//libc.a(lib_a-ctype_.o)
 .debug_info    0x0000750a      0xd53 D:/资料/工作资源/ARM7-SDK-2011-05-20/GNU/arm-elf/lib//libc.a(lib_a-dtoa.o)
 .debug_info    0x0000825d      0x99a D:/资料/工作资源/ARM7-SDK-2011-05-20/GNU/arm-elf/lib//libc.a(lib_a-fflush.o)
 .debug_info    0x00008bf7      0xb5d D:/资料/工作资源/ARM7-SDK-2011-05-20/GNU/arm-elf/lib//libc.a(lib_a-findfp.o)
 .debug_info    0x00009754      0xa58 D:/资料/工作资源/ARM7-SDK-2011-05-20/GNU/arm-elf/lib//libc.a(lib_a-fread.o)
 .debug_info    0x0000a1ac      0xbab D:/资料/工作资源/ARM7-SDK-2011-05-20/GNU/arm-elf/lib//libc.a(lib_a-freer.o)
 .debug_info    0x0000ad57      0xa75 D:/资料/工作资源/ARM7-SDK-2011-05-20/GNU/arm-elf/lib//libc.a(lib_a-fvwrite.o)
 .debug_info    0x0000b7cc      0xad1 D:/资料/工作资源/ARM7-SDK-2011-05-20/GNU/arm-elf/lib//libc.a(lib_a-fwalk.o)
 .debug_info    0x0000c29d      0x91e D:/资料/工作资源/ARM7-SDK-2011-05-20/GNU/arm-elf/lib//libc.a(lib_a-impure.o)
 .debug_info    0x0000cbbb       0xe4 D:/资料/工作资源/ARM7-SDK-2011-05-20/GNU/arm-elf/lib//libc.a(lib_a-iswspace.o)
 .debug_info    0x0000cc9f      0xb7e D:/资料/工作资源/ARM7-SDK-2011-05-20/GNU/arm-elf/lib//libc.a(lib_a-locale.o)
 .debug_info    0x0000d81d      0xad9 D:/资料/工作资源/ARM7-SDK-2011-05-20/GNU/arm-elf/lib//libc.a(lib_a-makebuf.o)
 .debug_info    0x0000e2f6      0xcb2 D:/资料/工作资源/ARM7-SDK-2011-05-20/GNU/arm-elf/lib//libc.a(lib_a-mallocr.o)
 .debug_info    0x0000efa8      0x9ef D:/资料/工作资源/ARM7-SDK-2011-05-20/GNU/arm-elf/lib//libc.a(lib_a-mbrtowc.o)
 .debug_info    0x0000f997      0x989 D:/资料/工作资源/ARM7-SDK-2011-05-20/GNU/arm-elf/lib//libc.a(lib_a-mbtowc_r.o)
 .debug_info    0x00010320      0x12d D:/资料/工作资源/ARM7-SDK-2011-05-20/GNU/arm-elf/lib//libc.a(lib_a-memchr.o)
 .debug_info    0x0001044d      0x13b D:/资料/工作资源/ARM7-SDK-2011-05-20/GNU/arm-elf/lib//libc.a(lib_a-memmove.o)
 .debug_info    0x00010588      0x938 D:/资料/工作资源/ARM7-SDK-2011-05-20/GNU/arm-elf/lib//libc.a(lib_a-mlock.o)
 .debug_info    0x00010ec0     0x1409 D:/资料/工作资源/ARM7-SDK-2011-05-20/GNU/arm-elf/lib//libc.a(lib_a-mprec.o)
 .debug_info    0x000122c9      0xb97 D:/资料/工作资源/ARM7-SDK-2011-05-20/GNU/arm-elf/lib//libc.a(lib_a-reallocr.o)
 .debug_info    0x00012e60      0x981 D:/资料/工作资源/ARM7-SDK-2011-05-20/GNU/arm-elf/lib//libc.a(lib_a-refill.o)
 .debug_info    0x000137e1      0x14d D:/资料/工作资源/ARM7-SDK-2011-05-20/GNU/arm-elf/lib//libc.a(lib_a-s_isinfd.o)
 .debug_info    0x0001392e      0x14f D:/资料/工作资源/ARM7-SDK-2011-05-20/GNU/arm-elf/lib//libc.a(lib_a-s_isnand.o)
 .debug_info    0x00013a7d       0xf9 D:/资料/工作资源/ARM7-SDK-2011-05-20/GNU/arm-elf/lib//libc.a(lib_a-sccl.o)
 .debug_info    0x00013b76       0xc6 D:/资料/工作资源/ARM7-SDK-2011-05-20/GNU/arm-elf/lib//libc.a(lib_a-sf_nan.o)
 .debug_info    0x00013c3c      0xa6c D:/资料/工作资源/ARM7-SDK-2011-05-20/GNU/arm-elf/lib//libc.a(lib_a-stdio.o)
 .debug_info    0x000146a8       0xd4 D:/资料/工作资源/ARM7-SDK-2011-05-20/GNU/arm-elf/lib//libc.a(lib_a-strcmp.o)
 .debug_info    0x0001477c      0xf39 D:/资料/工作资源/ARM7-SDK-2011-05-20/GNU/arm-elf/lib//libc.a(lib_a-strtod.o)
 .debug_info    0x000156b5      0xa0b D:/资料/工作资源/ARM7-SDK-2011-05-20/GNU/arm-elf/lib//libc.a(lib_a-strtol.o)
 .debug_info    0x000160c0      0x9de D:/资料/工作资源/ARM7-SDK-2011-05-20/GNU/arm-elf/lib//libc.a(lib_a-ungetc.o)
 .debug_info    0x00016a9e      0x9fd D:/资料/工作资源/ARM7-SDK-2011-05-20/GNU/arm-elf/lib//libc.a(lib_a-callocr.o)
 .debug_info    0x0001749b      0x97c D:/资料/工作资源/ARM7-SDK-2011-05-20/GNU/arm-elf/lib//libc.a(lib_a-fclose.o)
 .debug_info    0x00017e17      0xd30 D:/资料/工作资源/ARM7-SDK-2011-05-20/GNU/arm-elf/lib//libc.a(lib_a-gdtoa-gethex.o)
 .debug_info    0x00018b47      0x29b D:/资料/工作资源/ARM7-SDK-2011-05-20/GNU/arm-elf/lib//libc.a(lib_a-gdtoa-hexnan.o)
 .debug_info    0x00018de2       0x6a D:/资料/工作资源/ARM7-SDK-2011-05-20/GNU/arm-elf/lib//libgcc.a(_udivsi3.o)
 .debug_info    0x00018e4c       0x6a D:/资料/工作资源/ARM7-SDK-2011-05-20/GNU/arm-elf/lib//libgcc.a(_divsi3.o)
 .debug_info    0x00018eb6       0x6a D:/资料/工作资源/ARM7-SDK-2011-05-20/GNU/arm-elf/lib//libgcc.a(_umodsi3.o)
 .debug_info    0x00018f20       0x6a D:/资料/工作资源/ARM7-SDK-2011-05-20/GNU/arm-elf/lib//libgcc.a(_modsi3.o)
 .debug_info    0x00018f8a       0x6a D:/资料/工作资源/ARM7-SDK-2011-05-20/GNU/arm-elf/lib//libgcc.a(_dvmd_tls.o)
 .debug_info    0x00018ff4       0x69 D:/资料/工作资源/ARM7-SDK-2011-05-20/GNU/arm-elf/lib//libgcc.a(_addsubdf3.o)
 .debug_info    0x0001905d       0x69 D:/资料/工作资源/ARM7-SDK-2011-05-20/GNU/arm-elf/lib//libgcc.a(_muldivdf3.o)
 .debug_info    0x000190c6       0x69 D:/资料/工作资源/ARM7-SDK-2011-05-20/GNU/arm-elf/lib//libgcc.a(_cmpdf2.o)
 .debug_info    0x0001912f       0x69 D:/资料/工作资源/ARM7-SDK-2011-05-20/GNU/arm-elf/lib//libgcc.a(_fixdfsi.o)
 .debug_info    0x00019198       0x69 D:/资料/工作资源/ARM7-SDK-2011-05-20/GNU/arm-elf/lib//libgcc.a(_fixunsdfsi.o)
 .debug_info    0x00019201       0x69 D:/资料/工作资源/ARM7-SDK-2011-05-20/GNU/arm-elf/lib//libgcc.a(_truncdfsf2.o)
 .debug_info    0x0001926a      0x941 D:/资料/工作资源/ARM7-SDK-2011-05-20/GNU/arm-elf/lib//libc.a(lib_a-atol.o)
 .debug_info    0x00019bab      0x10a D:/资料/工作资源/ARM7-SDK-2011-05-20/GNU/arm-elf/lib//libc.a(lib_a-memcmp.o)
 .debug_info    0x00019cb5       0xe2 D:/资料/工作资源/ARM7-SDK-2011-05-20/GNU/arm-elf/lib//libc.a(lib_a-strcat.o)
 .debug_info    0x00019d97       0xd6 D:/资料/工作资源/ARM7-SDK-2011-05-20/GNU/arm-elf/lib//libc.a(lib_a-strstr.o)
 .debug_info    0x00019e6d      0x1c8 D:/资料/工作资源/ARM7-SDK-2011-05-20/GNU/arm-elf/lib//libm.a(lib_a-w_pow.o)
 .debug_info    0x0001a035      0x71a D:/资料/工作资源/ARM7-SDK-2011-05-20/GNU/arm-elf/lib//libm.a(lib_a-e_pow.o)
 .debug_info    0x0001a74f      0x22b D:/资料/工作资源/ARM7-SDK-2011-05-20/GNU/arm-elf/lib//libm.a(lib_a-e_sqrt.o)
 .debug_info    0x0001a97a      0x152 D:/资料/工作资源/ARM7-SDK-2011-05-20/GNU/arm-elf/lib//libm.a(lib_a-s_fabs.o)
 .debug_info    0x0001aacc      0x13b D:/资料/工作资源/ARM7-SDK-2011-05-20/GNU/arm-elf/lib//libm.a(lib_a-s_finite.o)
 .debug_info    0x0001ac07       0xc3 D:/资料/工作资源/ARM7-SDK-2011-05-20/GNU/arm-elf/lib//libm.a(lib_a-s_lib_ver.o)
 .debug_info    0x0001acca      0x131 D:/资料/工作资源/ARM7-SDK-2011-05-20/GNU/arm-elf/lib//libm.a(lib_a-s_matherr.o)
 .debug_info    0x0001adfb      0x227 D:/资料/工作资源/ARM7-SDK-2011-05-20/GNU/arm-elf/lib//libm.a(lib_a-s_rint.o)
 .debug_info    0x0001b022      0x214 D:/资料/工作资源/ARM7-SDK-2011-05-20/GNU/arm-elf/lib//libm.a(lib_a-s_scalbn.o)
 .debug_info    0x0001b236      0x169 D:/资料/工作资源/ARM7-SDK-2011-05-20/GNU/arm-elf/lib//libm.a(lib_a-s_copysign.o)
 .debug_info    0x0001b39f      0x90f D:/资料/工作资源/ARM7-SDK-2011-05-20/GNU/arm-elf/lib//libc.a(lib_a-errno.o)

.debug_line     0x00000000     0x6386
 .debug_line    0x00000000      0x139 D:/资料/工作资源/ARM7-SDK-2011-05-20/GNU/arm-elf/lib//libc.a(lib_a-fprintf.o)
 .debug_line    0x00000139       0xce D:/资料/工作资源/ARM7-SDK-2011-05-20/GNU/arm-elf/lib//libc.a(lib_a-memcpy.o)
 .debug_line    0x00000207       0xd0 D:/资料/工作资源/ARM7-SDK-2011-05-20/GNU/arm-elf/lib//libc.a(lib_a-memset.o)
 .debug_line    0x000002d7      0x175 D:/资料/工作资源/ARM7-SDK-2011-05-20/GNU/arm-elf/lib//libc.a(lib_a-sprintf.o)
 .debug_line    0x0000044c      0x17c D:/资料/工作资源/ARM7-SDK-2011-05-20/GNU/arm-elf/lib//libc.a(lib_a-sscanf.o)
 .debug_line    0x000005c8       0x79 D:/资料/工作资源/ARM7-SDK-2011-05-20/GNU/arm-elf/lib//libc.a(lib_a-strcpy.o)
 .debug_line    0x00000641       0xa8 D:/资料/工作资源/ARM7-SDK-2011-05-20/GNU/arm-elf/lib//libc.a(lib_a-strlen.o)
 .debug_line    0x000006e9       0xdb D:/资料/工作资源/ARM7-SDK-2011-05-20/GNU/arm-elf/lib//libc.a(lib_a-strncmp.o)
 .debug_line    0x000007c4       0xc8 D:/资料/工作资源/ARM7-SDK-2011-05-20/GNU/arm-elf/lib//libc.a(lib_a-strncpy.o)
 .debug_line    0x0000088c      0x16f D:/资料/工作资源/ARM7-SDK-2011-05-20/GNU/arm-elf/lib//libc.a(lib_a-strtoul.o)
 .debug_line    0x000009fb      0x55d D:/资料/工作资源/ARM7-SDK-2011-05-20/GNU/arm-elf/lib//libc.a(lib_a-vfprintf.o)
 .debug_line    0x00000f58      0x470 D:/资料/工作资源/ARM7-SDK-2011-05-20/GNU/arm-elf/lib//libc.a(lib_a-vfscanf.o)
 .debug_line    0x000013c8      0x146 D:/资料/工作资源/ARM7-SDK-2011-05-20/GNU/arm-elf/lib//libc.a(lib_a-wcrtomb.o)
 .debug_line    0x0000150e      0x16d D:/资料/工作资源/ARM7-SDK-2011-05-20/GNU/arm-elf/lib//libc.a(lib_a-wcsrtombs.o)
 .debug_line    0x0000167b      0x1fd D:/资料/工作资源/ARM7-SDK-2011-05-20/GNU/arm-elf/lib//libc.a(lib_a-wctomb_r.o)
 .debug_line    0x00001878      0x146 D:/资料/工作资源/ARM7-SDK-2011-05-20/GNU/arm-elf/lib//libc.a(lib_a-wsetup.o)
 .debug_line    0x000019be       0x58 D:/资料/工作资源/ARM7-SDK-2011-05-20/GNU/arm-elf/lib//libc.a(lib_a-ctype_.o)
 .debug_line    0x00001a16      0x478 D:/资料/工作资源/ARM7-SDK-2011-05-20/GNU/arm-elf/lib//libc.a(lib_a-dtoa.o)
 .debug_line    0x00001e8e      0x185 D:/资料/工作资源/ARM7-SDK-2011-05-20/GNU/arm-elf/lib//libc.a(lib_a-fflush.o)
 .debug_line    0x00002013      0x1bc D:/资料/工作资源/ARM7-SDK-2011-05-20/GNU/arm-elf/lib//libc.a(lib_a-findfp.o)
 .debug_line    0x000021cf      0x18f D:/资料/工作资源/ARM7-SDK-2011-05-20/GNU/arm-elf/lib//libc.a(lib_a-fread.o)
 .debug_line    0x0000235e      0x17f D:/资料/工作资源/ARM7-SDK-2011-05-20/GNU/arm-elf/lib//libc.a(lib_a-freer.o)
 .debug_line    0x000024dd      0x1f3 D:/资料/工作资源/ARM7-SDK-2011-05-20/GNU/arm-elf/lib//libc.a(lib_a-fvwrite.o)
 .debug_line    0x000026d0      0x150 D:/资料/工作资源/ARM7-SDK-2011-05-20/GNU/arm-elf/lib//libc.a(lib_a-fwalk.o)
 .debug_line    0x00002820       0xe2 D:/资料/工作资源/ARM7-SDK-2011-05-20/GNU/arm-elf/lib//libc.a(lib_a-impure.o)
 .debug_line    0x00002902       0xe6 D:/资料/工作资源/ARM7-SDK-2011-05-20/GNU/arm-elf/lib//libc.a(lib_a-iswspace.o)
 .debug_line    0x000029e8      0x14c D:/资料/工作资源/ARM7-SDK-2011-05-20/GNU/arm-elf/lib//libc.a(lib_a-locale.o)
 .debug_line    0x00002b34      0x17c D:/资料/工作资源/ARM7-SDK-2011-05-20/GNU/arm-elf/lib//libc.a(lib_a-makebuf.o)
 .debug_line    0x00002cb0      0x226 D:/资料/工作资源/ARM7-SDK-2011-05-20/GNU/arm-elf/lib//libc.a(lib_a-mallocr.o)
 .debug_line    0x00002ed6      0x144 D:/资料/工作资源/ARM7-SDK-2011-05-20/GNU/arm-elf/lib//libc.a(lib_a-mbrtowc.o)
 .debug_line    0x0000301a      0x134 D:/资料/工作资源/ARM7-SDK-2011-05-20/GNU/arm-elf/lib//libc.a(lib_a-mbtowc_r.o)
 .debug_line    0x0000314e       0xdc D:/资料/工作资源/ARM7-SDK-2011-05-20/GNU/arm-elf/lib//libc.a(lib_a-memchr.o)
 .debug_line    0x0000322a       0xd6 D:/资料/工作资源/ARM7-SDK-2011-05-20/GNU/arm-elf/lib//libc.a(lib_a-memmove.o)
 .debug_line    0x00003300       0xf4 D:/资料/工作资源/ARM7-SDK-2011-05-20/GNU/arm-elf/lib//libc.a(lib_a-mlock.o)
 .debug_line    0x000033f4      0x416 D:/资料/工作资源/ARM7-SDK-2011-05-20/GNU/arm-elf/lib//libc.a(lib_a-mprec.o)
 .debug_line    0x0000380a      0x19d D:/资料/工作资源/ARM7-SDK-2011-05-20/GNU/arm-elf/lib//libc.a(lib_a-reallocr.o)
 .debug_line    0x000039a7      0x176 D:/资料/工作资源/ARM7-SDK-2011-05-20/GNU/arm-elf/lib//libc.a(lib_a-refill.o)
 .debug_line    0x00003b1d       0xbc D:/资料/工作资源/ARM7-SDK-2011-05-20/GNU/arm-elf/lib//libc.a(lib_a-s_isinfd.o)
 .debug_line    0x00003bd9       0xbd D:/资料/工作资源/ARM7-SDK-2011-05-20/GNU/arm-elf/lib//libc.a(lib_a-s_isnand.o)
 .debug_line    0x00003c96       0xc5 D:/资料/工作资源/ARM7-SDK-2011-05-20/GNU/arm-elf/lib//libc.a(lib_a-sccl.o)
 .debug_line    0x00003d5b       0x69 D:/资料/工作资源/ARM7-SDK-2011-05-20/GNU/arm-elf/lib//libc.a(lib_a-sf_nan.o)
 .debug_line    0x00003dc4      0x162 D:/资料/工作资源/ARM7-SDK-2011-05-20/GNU/arm-elf/lib//libc.a(lib_a-stdio.o)
 .debug_line    0x00003f26       0x84 D:/资料/工作资源/ARM7-SDK-2011-05-20/GNU/arm-elf/lib//libc.a(lib_a-strcmp.o)
 .debug_line    0x00003faa      0x435 D:/资料/工作资源/ARM7-SDK-2011-05-20/GNU/arm-elf/lib//libc.a(lib_a-strtod.o)
 .debug_line    0x000043df      0x174 D:/资料/工作资源/ARM7-SDK-2011-05-20/GNU/arm-elf/lib//libc.a(lib_a-strtol.o)
 .debug_line    0x00004553      0x19a D:/资料/工作资源/ARM7-SDK-2011-05-20/GNU/arm-elf/lib//libc.a(lib_a-ungetc.o)
 .debug_line    0x000046ed      0x101 D:/资料/工作资源/ARM7-SDK-2011-05-20/GNU/arm-elf/lib//libc.a(lib_a-callocr.o)
 .debug_line    0x000047ee      0x149 D:/资料/工作资源/ARM7-SDK-2011-05-20/GNU/arm-elf/lib//libc.a(lib_a-fclose.o)
 .debug_line    0x00004937      0x285 D:/资料/工作资源/ARM7-SDK-2011-05-20/GNU/arm-elf/lib//libc.a(lib_a-gdtoa-gethex.o)
 .debug_line    0x00004bbc      0x11c D:/资料/工作资源/ARM7-SDK-2011-05-20/GNU/arm-elf/lib//libc.a(lib_a-gdtoa-hexnan.o)
 .debug_line    0x00004cd8       0x89 D:/资料/工作资源/ARM7-SDK-2011-05-20/GNU/arm-elf/lib//libgcc.a(_udivsi3.o)
 .debug_line    0x00004d61       0x95 D:/资料/工作资源/ARM7-SDK-2011-05-20/GNU/arm-elf/lib//libgcc.a(_divsi3.o)
 .debug_line    0x00004df6       0x72 D:/资料/工作资源/ARM7-SDK-2011-05-20/GNU/arm-elf/lib//libgcc.a(_umodsi3.o)
 .debug_line    0x00004e68       0x78 D:/资料/工作资源/ARM7-SDK-2011-05-20/GNU/arm-elf/lib//libgcc.a(_modsi3.o)
 .debug_line    0x00004ee0       0x5d D:/资料/工作资源/ARM7-SDK-2011-05-20/GNU/arm-elf/lib//libgcc.a(_dvmd_tls.o)
 .debug_line    0x00004f3d      0x1e6 D:/资料/工作资源/ARM7-SDK-2011-05-20/GNU/arm-elf/lib//libgcc.a(_addsubdf3.o)
 .debug_line    0x00005123      0x1f9 D:/资料/工作资源/ARM7-SDK-2011-05-20/GNU/arm-elf/lib//libgcc.a(_muldivdf3.o)
 .debug_line    0x0000531c       0xef D:/资料/工作资源/ARM7-SDK-2011-05-20/GNU/arm-elf/lib//libgcc.a(_cmpdf2.o)
 .debug_line    0x0000540b       0x72 D:/资料/工作资源/ARM7-SDK-2011-05-20/GNU/arm-elf/lib//libgcc.a(_fixdfsi.o)
 .debug_line    0x0000547d       0x70 D:/资料/工作资源/ARM7-SDK-2011-05-20/GNU/arm-elf/lib//libgcc.a(_fixunsdfsi.o)
 .debug_line    0x000054ed       0x83 D:/资料/工作资源/ARM7-SDK-2011-05-20/GNU/arm-elf/lib//libgcc.a(_truncdfsf2.o)
 .debug_line    0x00005570       0xf5 D:/资料/工作资源/ARM7-SDK-2011-05-20/GNU/arm-elf/lib//libc.a(lib_a-atol.o)
 .debug_line    0x00005665       0xc4 D:/资料/工作资源/ARM7-SDK-2011-05-20/GNU/arm-elf/lib//libc.a(lib_a-memcmp.o)
 .debug_line    0x00005729       0x7a D:/资料/工作资源/ARM7-SDK-2011-05-20/GNU/arm-elf/lib//libc.a(lib_a-strcat.o)
 .debug_line    0x000057a3       0xb3 D:/资料/工作资源/ARM7-SDK-2011-05-20/GNU/arm-elf/lib//libc.a(lib_a-strstr.o)
 .debug_line    0x00005856      0x12d D:/资料/工作资源/ARM7-SDK-2011-05-20/GNU/arm-elf/lib//libm.a(lib_a-w_pow.o)
 .debug_line    0x00005983      0x247 D:/资料/工作资源/ARM7-SDK-2011-05-20/GNU/arm-elf/lib//libm.a(lib_a-e_pow.o)
 .debug_line    0x00005bca      0x163 D:/资料/工作资源/ARM7-SDK-2011-05-20/GNU/arm-elf/lib//libm.a(lib_a-e_sqrt.o)
 .debug_line    0x00005d2d       0xf0 D:/资料/工作资源/ARM7-SDK-2011-05-20/GNU/arm-elf/lib//libm.a(lib_a-s_fabs.o)
 .debug_line    0x00005e1d       0xb7 D:/资料/工作资源/ARM7-SDK-2011-05-20/GNU/arm-elf/lib//libm.a(lib_a-s_finite.o)
 .debug_line    0x00005ed4       0x91 D:/资料/工作资源/ARM7-SDK-2011-05-20/GNU/arm-elf/lib//libm.a(lib_a-s_lib_ver.o)
 .debug_line    0x00005f65       0xa2 D:/资料/工作资源/ARM7-SDK-2011-05-20/GNU/arm-elf/lib//libm.a(lib_a-s_matherr.o)
 .debug_line    0x00006007       0xe8 D:/资料/工作资源/ARM7-SDK-2011-05-20/GNU/arm-elf/lib//libm.a(lib_a-s_rint.o)
 .debug_line    0x000060ef       0xea D:/资料/工作资源/ARM7-SDK-2011-05-20/GNU/arm-elf/lib//libm.a(lib_a-s_scalbn.o)
 .debug_line    0x000061d9       0xbc D:/资料/工作资源/ARM7-SDK-2011-05-20/GNU/arm-elf/lib//libm.a(lib_a-s_copysign.o)
 .debug_line    0x00006295       0xf1 D:/资料/工作资源/ARM7-SDK-2011-05-20/GNU/arm-elf/lib//libc.a(lib_a-errno.o)

.debug_frame    0x00000000     0x1200
 .debug_frame   0x00000000       0x34 D:/资料/工作资源/ARM7-SDK-2011-05-20/GNU/arm-elf/lib//libc.a(lib_a-fprintf.o)
 .debug_frame   0x00000034       0x28 D:/资料/工作资源/ARM7-SDK-2011-05-20/GNU/arm-elf/lib//libc.a(lib_a-memcpy.o)
 .debug_frame   0x0000005c       0x20 D:/资料/工作资源/ARM7-SDK-2011-05-20/GNU/arm-elf/lib//libc.a(lib_a-memset.o)
 .debug_frame   0x0000007c       0x5c D:/资料/工作资源/ARM7-SDK-2011-05-20/GNU/arm-elf/lib//libc.a(lib_a-sprintf.o)
 .debug_frame   0x000000d8       0x70 D:/资料/工作资源/ARM7-SDK-2011-05-20/GNU/arm-elf/lib//libc.a(lib_a-sscanf.o)
 .debug_frame   0x00000148       0x28 D:/资料/工作资源/ARM7-SDK-2011-05-20/GNU/arm-elf/lib//libc.a(lib_a-strcpy.o)
 .debug_frame   0x00000170       0x20 D:/资料/工作资源/ARM7-SDK-2011-05-20/GNU/arm-elf/lib//libc.a(lib_a-strlen.o)
 .debug_frame   0x00000190       0x28 D:/资料/工作资源/ARM7-SDK-2011-05-20/GNU/arm-elf/lib//libc.a(lib_a-strncmp.o)
 .debug_frame   0x000001b8       0x2c D:/资料/工作资源/ARM7-SDK-2011-05-20/GNU/arm-elf/lib//libc.a(lib_a-strncpy.o)
 .debug_frame   0x000001e4       0x50 D:/资料/工作资源/ARM7-SDK-2011-05-20/GNU/arm-elf/lib//libc.a(lib_a-strtoul.o)
 .debug_frame   0x00000234       0x6c D:/资料/工作资源/ARM7-SDK-2011-05-20/GNU/arm-elf/lib//libc.a(lib_a-vfprintf.o)
 .debug_frame   0x000002a0       0x94 D:/资料/工作资源/ARM7-SDK-2011-05-20/GNU/arm-elf/lib//libc.a(lib_a-vfscanf.o)
 .debug_frame   0x00000334       0x44 D:/资料/工作资源/ARM7-SDK-2011-05-20/GNU/arm-elf/lib//libc.a(lib_a-wcrtomb.o)
 .debug_frame   0x00000378       0x54 D:/资料/工作资源/ARM7-SDK-2011-05-20/GNU/arm-elf/lib//libc.a(lib_a-wcsrtombs.o)
 .debug_frame   0x000003cc       0x30 D:/资料/工作资源/ARM7-SDK-2011-05-20/GNU/arm-elf/lib//libc.a(lib_a-wctomb_r.o)
 .debug_frame   0x000003fc       0x2c D:/资料/工作资源/ARM7-SDK-2011-05-20/GNU/arm-elf/lib//libc.a(lib_a-wsetup.o)
 .debug_frame   0x00000428       0x64 D:/资料/工作资源/ARM7-SDK-2011-05-20/GNU/arm-elf/lib//libc.a(lib_a-dtoa.o)
 .debug_frame   0x0000048c       0x2c D:/资料/工作资源/ARM7-SDK-2011-05-20/GNU/arm-elf/lib//libc.a(lib_a-fflush.o)
 .debug_frame   0x000004b8      0x114 D:/资料/工作资源/ARM7-SDK-2011-05-20/GNU/arm-elf/lib//libc.a(lib_a-findfp.o)
 .debug_frame   0x000005cc       0x54 D:/资料/工作资源/ARM7-SDK-2011-05-20/GNU/arm-elf/lib//libc.a(lib_a-fread.o)
 .debug_frame   0x00000620       0x50 D:/资料/工作资源/ARM7-SDK-2011-05-20/GNU/arm-elf/lib//libc.a(lib_a-freer.o)
 .debug_frame   0x00000670       0x38 D:/资料/工作资源/ARM7-SDK-2011-05-20/GNU/arm-elf/lib//libc.a(lib_a-fvwrite.o)
 .debug_frame   0x000006a8       0x58 D:/资料/工作资源/ARM7-SDK-2011-05-20/GNU/arm-elf/lib//libc.a(lib_a-fwalk.o)
 .debug_frame   0x00000700       0x20 D:/资料/工作资源/ARM7-SDK-2011-05-20/GNU/arm-elf/lib//libc.a(lib_a-iswspace.o)
 .debug_frame   0x00000720       0x6c D:/资料/工作资源/ARM7-SDK-2011-05-20/GNU/arm-elf/lib//libc.a(lib_a-locale.o)
 .debug_frame   0x0000078c       0x30 D:/资料/工作资源/ARM7-SDK-2011-05-20/GNU/arm-elf/lib//libc.a(lib_a-makebuf.o)
 .debug_frame   0x000007bc       0x38 D:/资料/工作资源/ARM7-SDK-2011-05-20/GNU/arm-elf/lib//libc.a(lib_a-mallocr.o)
 .debug_frame   0x000007f4       0x48 D:/资料/工作资源/ARM7-SDK-2011-05-20/GNU/arm-elf/lib//libc.a(lib_a-mbrtowc.o)
 .debug_frame   0x0000083c       0x24 D:/资料/工作资源/ARM7-SDK-2011-05-20/GNU/arm-elf/lib//libc.a(lib_a-mbtowc_r.o)
 .debug_frame   0x00000860       0x28 D:/资料/工作资源/ARM7-SDK-2011-05-20/GNU/arm-elf/lib//libc.a(lib_a-memchr.o)
 .debug_frame   0x00000888       0x2c D:/资料/工作资源/ARM7-SDK-2011-05-20/GNU/arm-elf/lib//libc.a(lib_a-memmove.o)
 .debug_frame   0x000008b4       0x30 D:/资料/工作资源/ARM7-SDK-2011-05-20/GNU/arm-elf/lib//libc.a(lib_a-mlock.o)
 .debug_frame   0x000008e4      0x21c D:/资料/工作资源/ARM7-SDK-2011-05-20/GNU/arm-elf/lib//libc.a(lib_a-mprec.o)
 .debug_frame   0x00000b00       0x38 D:/资料/工作资源/ARM7-SDK-2011-05-20/GNU/arm-elf/lib//libc.a(lib_a-reallocr.o)
 .debug_frame   0x00000b38       0x40 D:/资料/工作资源/ARM7-SDK-2011-05-20/GNU/arm-elf/lib//libc.a(lib_a-refill.o)
 .debug_frame   0x00000b78       0x28 D:/资料/工作资源/ARM7-SDK-2011-05-20/GNU/arm-elf/lib//libc.a(lib_a-s_isinfd.o)
 .debug_frame   0x00000ba0       0x28 D:/资料/工作资源/ARM7-SDK-2011-05-20/GNU/arm-elf/lib//libc.a(lib_a-s_isnand.o)
 .debug_frame   0x00000bc8       0x2c D:/资料/工作资源/ARM7-SDK-2011-05-20/GNU/arm-elf/lib//libc.a(lib_a-sccl.o)
 .debug_frame   0x00000bf4       0x20 D:/资料/工作资源/ARM7-SDK-2011-05-20/GNU/arm-elf/lib//libc.a(lib_a-sf_nan.o)
 .debug_frame   0x00000c14       0x70 D:/资料/工作资源/ARM7-SDK-2011-05-20/GNU/arm-elf/lib//libc.a(lib_a-stdio.o)
 .debug_frame   0x00000c84       0x20 D:/资料/工作资源/ARM7-SDK-2011-05-20/GNU/arm-elf/lib//libc.a(lib_a-strcmp.o)
 .debug_frame   0x00000ca4       0x78 D:/资料/工作资源/ARM7-SDK-2011-05-20/GNU/arm-elf/lib//libc.a(lib_a-strtod.o)
 .debug_frame   0x00000d1c       0x50 D:/资料/工作资源/ARM7-SDK-2011-05-20/GNU/arm-elf/lib//libc.a(lib_a-strtol.o)
 .debug_frame   0x00000d6c       0x5c D:/资料/工作资源/ARM7-SDK-2011-05-20/GNU/arm-elf/lib//libc.a(lib_a-ungetc.o)
 .debug_frame   0x00000dc8       0x28 D:/资料/工作资源/ARM7-SDK-2011-05-20/GNU/arm-elf/lib//libc.a(lib_a-callocr.o)
 .debug_frame   0x00000df0       0x3c D:/资料/工作资源/ARM7-SDK-2011-05-20/GNU/arm-elf/lib//libc.a(lib_a-fclose.o)
 .debug_frame   0x00000e2c       0x7c D:/资料/工作资源/ARM7-SDK-2011-05-20/GNU/arm-elf/lib//libc.a(lib_a-gdtoa-gethex.o)
 .debug_frame   0x00000ea8       0x50 D:/资料/工作资源/ARM7-SDK-2011-05-20/GNU/arm-elf/lib//libc.a(lib_a-gdtoa-hexnan.o)
 .debug_frame   0x00000ef8       0x28 D:/资料/工作资源/ARM7-SDK-2011-05-20/GNU/arm-elf/lib//libgcc.a(_udivsi3.o)
 .debug_frame   0x00000f20       0x28 D:/资料/工作资源/ARM7-SDK-2011-05-20/GNU/arm-elf/lib//libgcc.a(_divsi3.o)
 .debug_frame   0x00000f48       0x28 D:/资料/工作资源/ARM7-SDK-2011-05-20/GNU/arm-elf/lib//libgcc.a(_umodsi3.o)
 .debug_frame   0x00000f70       0x28 D:/资料/工作资源/ARM7-SDK-2011-05-20/GNU/arm-elf/lib//libgcc.a(_modsi3.o)
 .debug_frame   0x00000f98       0x30 D:/资料/工作资源/ARM7-SDK-2011-05-20/GNU/arm-elf/lib//libc.a(lib_a-atol.o)
 .debug_frame   0x00000fc8       0x28 D:/资料/工作资源/ARM7-SDK-2011-05-20/GNU/arm-elf/lib//libc.a(lib_a-memcmp.o)
 .debug_frame   0x00000ff0       0x28 D:/资料/工作资源/ARM7-SDK-2011-05-20/GNU/arm-elf/lib//libc.a(lib_a-strcat.o)
 .debug_frame   0x00001018       0x20 D:/资料/工作资源/ARM7-SDK-2011-05-20/GNU/arm-elf/lib//libc.a(lib_a-strstr.o)
 .debug_frame   0x00001038       0x38 D:/资料/工作资源/ARM7-SDK-2011-05-20/GNU/arm-elf/lib//libm.a(lib_a-w_pow.o)
 .debug_frame   0x00001070       0x3c D:/资料/工作资源/ARM7-SDK-2011-05-20/GNU/arm-elf/lib//libm.a(lib_a-e_pow.o)
 .debug_frame   0x000010ac       0x34 D:/资料/工作资源/ARM7-SDK-2011-05-20/GNU/arm-elf/lib//libm.a(lib_a-e_sqrt.o)
 .debug_frame   0x000010e0       0x2c D:/资料/工作资源/ARM7-SDK-2011-05-20/GNU/arm-elf/lib//libm.a(lib_a-s_fabs.o)
 .debug_frame   0x0000110c       0x20 D:/资料/工作资源/ARM7-SDK-2011-05-20/GNU/arm-elf/lib//libm.a(lib_a-s_finite.o)
 .debug_frame   0x0000112c       0x20 D:/资料/工作资源/ARM7-SDK-2011-05-20/GNU/arm-elf/lib//libm.a(lib_a-s_matherr.o)
 .debug_frame   0x0000114c       0x38 D:/资料/工作资源/ARM7-SDK-2011-05-20/GNU/arm-elf/lib//libm.a(lib_a-s_rint.o)
 .debug_frame   0x00001184       0x30 D:/资料/工作资源/ARM7-SDK-2011-05-20/GNU/arm-elf/lib//libm.a(lib_a-s_scalbn.o)
 .debug_frame   0x000011b4       0x2c D:/资料/工作资源/ARM7-SDK-2011-05-20/GNU/arm-elf/lib//libm.a(lib_a-s_copysign.o)
 .debug_frame   0x000011e0       0x20 D:/资料/工作资源/ARM7-SDK-2011-05-20/GNU/arm-elf/lib//libc.a(lib_a-errno.o)

.debug_loc      0x00000000     0xb8e6
 .debug_loc     0x00000000       0x69 D:/资料/工作资源/ARM7-SDK-2011-05-20/GNU/arm-elf/lib//libc.a(lib_a-fprintf.o)
 .debug_loc     0x00000069      0x104 D:/资料/工作资源/ARM7-SDK-2011-05-20/GNU/arm-elf/lib//libc.a(lib_a-memcpy.o)
 .debug_loc     0x0000016d       0xa9 D:/资料/工作资源/ARM7-SDK-2011-05-20/GNU/arm-elf/lib//libc.a(lib_a-memset.o)
 .debug_loc     0x00000216       0xfd D:/资料/工作资源/ARM7-SDK-2011-05-20/GNU/arm-elf/lib//libc.a(lib_a-sprintf.o)
 .debug_loc     0x00000313      0x105 D:/资料/工作资源/ARM7-SDK-2011-05-20/GNU/arm-elf/lib//libc.a(lib_a-sscanf.o)
 .debug_loc     0x00000418       0x3d D:/资料/工作资源/ARM7-SDK-2011-05-20/GNU/arm-elf/lib//libc.a(lib_a-strcpy.o)
 .debug_loc     0x00000455       0x26 D:/资料/工作资源/ARM7-SDK-2011-05-20/GNU/arm-elf/lib//libc.a(lib_a-strlen.o)
 .debug_loc     0x0000047b      0x102 D:/资料/工作资源/ARM7-SDK-2011-05-20/GNU/arm-elf/lib//libc.a(lib_a-strncmp.o)
 .debug_loc     0x0000057d       0xf4 D:/资料/工作资源/ARM7-SDK-2011-05-20/GNU/arm-elf/lib//libc.a(lib_a-strncpy.o)
 .debug_loc     0x00000671      0x21b D:/资料/工作资源/ARM7-SDK-2011-05-20/GNU/arm-elf/lib//libc.a(lib_a-strtoul.o)
 .debug_loc     0x0000088c     0x16ae D:/资料/工作资源/ARM7-SDK-2011-05-20/GNU/arm-elf/lib//libc.a(lib_a-vfprintf.o)
 .debug_loc     0x00001f3a      0x959 D:/资料/工作资源/ARM7-SDK-2011-05-20/GNU/arm-elf/lib//libc.a(lib_a-vfscanf.o)
 .debug_loc     0x00002893      0x145 D:/资料/工作资源/ARM7-SDK-2011-05-20/GNU/arm-elf/lib//libc.a(lib_a-wcrtomb.o)
 .debug_loc     0x000029d8      0x27e D:/资料/工作资源/ARM7-SDK-2011-05-20/GNU/arm-elf/lib//libc.a(lib_a-wcsrtombs.o)
 .debug_loc     0x00002c56      0x1cf D:/资料/工作资源/ARM7-SDK-2011-05-20/GNU/arm-elf/lib//libc.a(lib_a-wctomb_r.o)
 .debug_loc     0x00002e25       0x3d D:/资料/工作资源/ARM7-SDK-2011-05-20/GNU/arm-elf/lib//libc.a(lib_a-wsetup.o)
 .debug_loc     0x00002e62     0x145b D:/资料/工作资源/ARM7-SDK-2011-05-20/GNU/arm-elf/lib//libc.a(lib_a-dtoa.o)
 .debug_loc     0x000042bd      0x10a D:/资料/工作资源/ARM7-SDK-2011-05-20/GNU/arm-elf/lib//libc.a(lib_a-fflush.o)
 .debug_loc     0x000043c7      0x1c2 D:/资料/工作资源/ARM7-SDK-2011-05-20/GNU/arm-elf/lib//libc.a(lib_a-findfp.o)
 .debug_loc     0x00004589      0x2d2 D:/资料/工作资源/ARM7-SDK-2011-05-20/GNU/arm-elf/lib//libc.a(lib_a-fread.o)
 .debug_loc     0x0000485b      0x2ab D:/资料/工作资源/ARM7-SDK-2011-05-20/GNU/arm-elf/lib//libc.a(lib_a-freer.o)
 .debug_loc     0x00004b06      0x31a D:/资料/工作资源/ARM7-SDK-2011-05-20/GNU/arm-elf/lib//libc.a(lib_a-fvwrite.o)
 .debug_loc     0x00004e20      0x129 D:/资料/工作资源/ARM7-SDK-2011-05-20/GNU/arm-elf/lib//libc.a(lib_a-fwalk.o)
 .debug_loc     0x00004f49       0x13 D:/资料/工作资源/ARM7-SDK-2011-05-20/GNU/arm-elf/lib//libc.a(lib_a-iswspace.o)
 .debug_loc     0x00004f5c       0xc8 D:/资料/工作资源/ARM7-SDK-2011-05-20/GNU/arm-elf/lib//libc.a(lib_a-locale.o)
 .debug_loc     0x00005024       0xd0 D:/资料/工作资源/ARM7-SDK-2011-05-20/GNU/arm-elf/lib//libc.a(lib_a-makebuf.o)
 .debug_loc     0x000050f4      0x740 D:/资料/工作资源/ARM7-SDK-2011-05-20/GNU/arm-elf/lib//libc.a(lib_a-mallocr.o)
 .debug_loc     0x00005834      0x178 D:/资料/工作资源/ARM7-SDK-2011-05-20/GNU/arm-elf/lib//libc.a(lib_a-mbrtowc.o)
 .debug_loc     0x000059ac       0x84 D:/资料/工作资源/ARM7-SDK-2011-05-20/GNU/arm-elf/lib//libc.a(lib_a-mbtowc_r.o)
 .debug_loc     0x00005a30      0x128 D:/资料/工作资源/ARM7-SDK-2011-05-20/GNU/arm-elf/lib//libc.a(lib_a-memchr.o)
 .debug_loc     0x00005b58      0x17d D:/资料/工作资源/ARM7-SDK-2011-05-20/GNU/arm-elf/lib//libc.a(lib_a-memmove.o)
 .debug_loc     0x00005cd5      0xf30 D:/资料/工作资源/ARM7-SDK-2011-05-20/GNU/arm-elf/lib//libc.a(lib_a-mprec.o)
 .debug_loc     0x00006c05      0x68b D:/资料/工作资源/ARM7-SDK-2011-05-20/GNU/arm-elf/lib//libc.a(lib_a-reallocr.o)
 .debug_loc     0x00007290       0x79 D:/资料/工作资源/ARM7-SDK-2011-05-20/GNU/arm-elf/lib//libc.a(lib_a-refill.o)
 .debug_loc     0x00007309       0x4f D:/资料/工作资源/ARM7-SDK-2011-05-20/GNU/arm-elf/lib//libc.a(lib_a-s_isinfd.o)
 .debug_loc     0x00007358       0x62 D:/资料/工作资源/ARM7-SDK-2011-05-20/GNU/arm-elf/lib//libc.a(lib_a-s_isnand.o)
 .debug_loc     0x000073ba       0xce D:/资料/工作资源/ARM7-SDK-2011-05-20/GNU/arm-elf/lib//libc.a(lib_a-sccl.o)
 .debug_loc     0x00007488       0x13 D:/资料/工作资源/ARM7-SDK-2011-05-20/GNU/arm-elf/lib//libc.a(lib_a-sf_nan.o)
 .debug_loc     0x0000749b      0x1a4 D:/资料/工作资源/ARM7-SDK-2011-05-20/GNU/arm-elf/lib//libc.a(lib_a-stdio.o)
 .debug_loc     0x0000763f       0x99 D:/资料/工作资源/ARM7-SDK-2011-05-20/GNU/arm-elf/lib//libc.a(lib_a-strcmp.o)
 .debug_loc     0x000076d8     0x1424 D:/资料/工作资源/ARM7-SDK-2011-05-20/GNU/arm-elf/lib//libc.a(lib_a-strtod.o)
 .debug_loc     0x00008afc      0x242 D:/资料/工作资源/ARM7-SDK-2011-05-20/GNU/arm-elf/lib//libc.a(lib_a-strtol.o)
 .debug_loc     0x00008d3e      0x183 D:/资料/工作资源/ARM7-SDK-2011-05-20/GNU/arm-elf/lib//libc.a(lib_a-ungetc.o)
 .debug_loc     0x00008ec1       0xd6 D:/资料/工作资源/ARM7-SDK-2011-05-20/GNU/arm-elf/lib//libc.a(lib_a-callocr.o)
 .debug_loc     0x00008f97       0xa2 D:/资料/工作资源/ARM7-SDK-2011-05-20/GNU/arm-elf/lib//libc.a(lib_a-fclose.o)
 .debug_loc     0x00009039      0x805 D:/资料/工作资源/ARM7-SDK-2011-05-20/GNU/arm-elf/lib//libc.a(lib_a-gdtoa-gethex.o)
 .debug_loc     0x0000983e      0x270 D:/资料/工作资源/ARM7-SDK-2011-05-20/GNU/arm-elf/lib//libc.a(lib_a-gdtoa-hexnan.o)
 .debug_loc     0x00009aae       0x39 D:/资料/工作资源/ARM7-SDK-2011-05-20/GNU/arm-elf/lib//libc.a(lib_a-atol.o)
 .debug_loc     0x00009ae7      0x120 D:/资料/工作资源/ARM7-SDK-2011-05-20/GNU/arm-elf/lib//libc.a(lib_a-memcmp.o)
 .debug_loc     0x00009c07       0x79 D:/资料/工作资源/ARM7-SDK-2011-05-20/GNU/arm-elf/lib//libc.a(lib_a-strcat.o)
 .debug_loc     0x00009c80       0x31 D:/资料/工作资源/ARM7-SDK-2011-05-20/GNU/arm-elf/lib//libc.a(lib_a-strstr.o)
 .debug_loc     0x00009cb1      0x184 D:/资料/工作资源/ARM7-SDK-2011-05-20/GNU/arm-elf/lib//libm.a(lib_a-w_pow.o)
 .debug_loc     0x00009e35     0x113e D:/资料/工作资源/ARM7-SDK-2011-05-20/GNU/arm-elf/lib//libm.a(lib_a-e_pow.o)
 .debug_loc     0x0000af73      0x33a D:/资料/工作资源/ARM7-SDK-2011-05-20/GNU/arm-elf/lib//libm.a(lib_a-e_sqrt.o)
 .debug_loc     0x0000b2ad       0x37 D:/资料/工作资源/ARM7-SDK-2011-05-20/GNU/arm-elf/lib//libm.a(lib_a-s_fabs.o)
 .debug_loc     0x0000b2e4       0x18 D:/资料/工作资源/ARM7-SDK-2011-05-20/GNU/arm-elf/lib//libm.a(lib_a-s_finite.o)
 .debug_loc     0x0000b2fc       0x13 D:/资料/工作资源/ARM7-SDK-2011-05-20/GNU/arm-elf/lib//libm.a(lib_a-s_matherr.o)
 .debug_loc     0x0000b30f      0x383 D:/资料/工作资源/ARM7-SDK-2011-05-20/GNU/arm-elf/lib//libm.a(lib_a-s_rint.o)
 .debug_loc     0x0000b692      0x1ed D:/资料/工作资源/ARM7-SDK-2011-05-20/GNU/arm-elf/lib//libm.a(lib_a-s_scalbn.o)
 .debug_loc     0x0000b87f       0x67 D:/资料/工作资源/ARM7-SDK-2011-05-20/GNU/arm-elf/lib//libm.a(lib_a-s_copysign.o)

.debug_pubnames
                0x00000000      0xc8e
 .debug_pubnames
                0x00000000       0x1e D:/资料/工作资源/ARM7-SDK-2011-05-20/GNU/arm-elf/lib//libc.a(lib_a-fprintf.o)
 .debug_pubnames
                0x0000001e       0x1d D:/资料/工作资源/ARM7-SDK-2011-05-20/GNU/arm-elf/lib//libc.a(lib_a-memcpy.o)
 .debug_pubnames
                0x0000003b       0x1d D:/资料/工作资源/ARM7-SDK-2011-05-20/GNU/arm-elf/lib//libc.a(lib_a-memset.o)
 .debug_pubnames
                0x00000058       0x2d D:/资料/工作资源/ARM7-SDK-2011-05-20/GNU/arm-elf/lib//libc.a(lib_a-sprintf.o)
 .debug_pubnames
                0x00000085       0x2b D:/资料/工作资源/ARM7-SDK-2011-05-20/GNU/arm-elf/lib//libc.a(lib_a-sscanf.o)
 .debug_pubnames
                0x000000b0       0x1d D:/资料/工作资源/ARM7-SDK-2011-05-20/GNU/arm-elf/lib//libc.a(lib_a-strcpy.o)
 .debug_pubnames
                0x000000cd       0x1d D:/资料/工作资源/ARM7-SDK-2011-05-20/GNU/arm-elf/lib//libc.a(lib_a-strlen.o)
 .debug_pubnames
                0x000000ea       0x1e D:/资料/工作资源/ARM7-SDK-2011-05-20/GNU/arm-elf/lib//libc.a(lib_a-strncmp.o)
 .debug_pubnames
                0x00000108       0x1e D:/资料/工作资源/ARM7-SDK-2011-05-20/GNU/arm-elf/lib//libc.a(lib_a-strncpy.o)
 .debug_pubnames
                0x00000126       0x2d D:/资料/工作资源/ARM7-SDK-2011-05-20/GNU/arm-elf/lib//libc.a(lib_a-strtoul.o)
 .debug_pubnames
                0x00000153       0x2f D:/资料/工作资源/ARM7-SDK-2011-05-20/GNU/arm-elf/lib//libc.a(lib_a-vfprintf.o)
 .debug_pubnames
                0x00000182       0x4d D:/资料/工作资源/ARM7-SDK-2011-05-20/GNU/arm-elf/lib//libc.a(lib_a-vfscanf.o)
 .debug_pubnames
                0x000001cf       0x2d D:/资料/工作资源/ARM7-SDK-2011-05-20/GNU/arm-elf/lib//libc.a(lib_a-wcrtomb.o)
 .debug_pubnames
                0x000001fc       0x31 D:/资料/工作资源/ARM7-SDK-2011-05-20/GNU/arm-elf/lib//libc.a(lib_a-wcsrtombs.o)
 .debug_pubnames
                0x0000022d       0x20 D:/资料/工作资源/ARM7-SDK-2011-05-20/GNU/arm-elf/lib//libc.a(lib_a-wctomb_r.o)
 .debug_pubnames
                0x0000024d       0x20 D:/资料/工作资源/ARM7-SDK-2011-05-20/GNU/arm-elf/lib//libc.a(lib_a-wsetup.o)
 .debug_pubnames
                0x0000026d       0x2e D:/资料/工作资源/ARM7-SDK-2011-05-20/GNU/arm-elf/lib//libc.a(lib_a-ctype_.o)
 .debug_pubnames
                0x0000029b       0x1e D:/资料/工作资源/ARM7-SDK-2011-05-20/GNU/arm-elf/lib//libc.a(lib_a-dtoa.o)
 .debug_pubnames
                0x000002b9       0x1d D:/资料/工作资源/ARM7-SDK-2011-05-20/GNU/arm-elf/lib//libc.a(lib_a-fflush.o)
 .debug_pubnames
                0x000002d6       0xdb D:/资料/工作资源/ARM7-SDK-2011-05-20/GNU/arm-elf/lib//libc.a(lib_a-findfp.o)
 .debug_pubnames
                0x000003b1       0x29 D:/资料/工作资源/ARM7-SDK-2011-05-20/GNU/arm-elf/lib//libc.a(lib_a-fread.o)
 .debug_pubnames
                0x000003da       0x31 D:/资料/工作资源/ARM7-SDK-2011-05-20/GNU/arm-elf/lib//libc.a(lib_a-freer.o)
 .debug_pubnames
                0x0000040b       0x23 D:/资料/工作资源/ARM7-SDK-2011-05-20/GNU/arm-elf/lib//libc.a(lib_a-fvwrite.o)
 .debug_pubnames
                0x0000042e       0x2e D:/资料/工作资源/ARM7-SDK-2011-05-20/GNU/arm-elf/lib//libc.a(lib_a-fwalk.o)
 .debug_pubnames
                0x0000045c       0x39 D:/资料/工作资源/ARM7-SDK-2011-05-20/GNU/arm-elf/lib//libc.a(lib_a-impure.o)
 .debug_pubnames
                0x00000495       0x1f D:/资料/工作资源/ARM7-SDK-2011-05-20/GNU/arm-elf/lib//libc.a(lib_a-iswspace.o)
 .debug_pubnames
                0x000004b4       0xc3 D:/资料/工作资源/ARM7-SDK-2011-05-20/GNU/arm-elf/lib//libc.a(lib_a-locale.o)
 .debug_pubnames
                0x00000577       0x21 D:/资料/工作资源/ARM7-SDK-2011-05-20/GNU/arm-elf/lib//libc.a(lib_a-makebuf.o)
 .debug_pubnames
                0x00000598       0xce D:/资料/工作资源/ARM7-SDK-2011-05-20/GNU/arm-elf/lib//libc.a(lib_a-mallocr.o)
 .debug_pubnames
                0x00000666       0x2d D:/资料/工作资源/ARM7-SDK-2011-05-20/GNU/arm-elf/lib//libc.a(lib_a-mbrtowc.o)
 .debug_pubnames
                0x00000693       0x20 D:/资料/工作资源/ARM7-SDK-2011-05-20/GNU/arm-elf/lib//libc.a(lib_a-mbtowc_r.o)
 .debug_pubnames
                0x000006b3       0x1d D:/资料/工作资源/ARM7-SDK-2011-05-20/GNU/arm-elf/lib//libc.a(lib_a-memchr.o)
 .debug_pubnames
                0x000006d0       0x1e D:/资料/工作资源/ARM7-SDK-2011-05-20/GNU/arm-elf/lib//libc.a(lib_a-memmove.o)
 .debug_pubnames
                0x000006ee       0x38 D:/资料/工作资源/ARM7-SDK-2011-05-20/GNU/arm-elf/lib//libc.a(lib_a-mlock.o)
 .debug_pubnames
                0x00000726      0x13a D:/资料/工作资源/ARM7-SDK-2011-05-20/GNU/arm-elf/lib//libc.a(lib_a-mprec.o)
 .debug_pubnames
                0x00000860       0x21 D:/资料/工作资源/ARM7-SDK-2011-05-20/GNU/arm-elf/lib//libc.a(lib_a-reallocr.o)
 .debug_pubnames
                0x00000881       0x22 D:/资料/工作资源/ARM7-SDK-2011-05-20/GNU/arm-elf/lib//libc.a(lib_a-refill.o)
 .debug_pubnames
                0x000008a3       0x1f D:/资料/工作资源/ARM7-SDK-2011-05-20/GNU/arm-elf/lib//libc.a(lib_a-s_isinfd.o)
 .debug_pubnames
                0x000008c2       0x1f D:/资料/工作资源/ARM7-SDK-2011-05-20/GNU/arm-elf/lib//libc.a(lib_a-s_isnand.o)
 .debug_pubnames
                0x000008e1       0x1d D:/资料/工作资源/ARM7-SDK-2011-05-20/GNU/arm-elf/lib//libc.a(lib_a-sccl.o)
 .debug_pubnames
                0x000008fe       0x1b D:/资料/工作资源/ARM7-SDK-2011-05-20/GNU/arm-elf/lib//libc.a(lib_a-sf_nan.o)
 .debug_pubnames
                0x00000919       0x44 D:/资料/工作资源/ARM7-SDK-2011-05-20/GNU/arm-elf/lib//libc.a(lib_a-stdio.o)
 .debug_pubnames
                0x0000095d       0x1d D:/资料/工作资源/ARM7-SDK-2011-05-20/GNU/arm-elf/lib//libc.a(lib_a-strcmp.o)
 .debug_pubnames
                0x0000097a       0x36 D:/资料/工作资源/ARM7-SDK-2011-05-20/GNU/arm-elf/lib//libc.a(lib_a-strtod.o)
 .debug_pubnames
                0x000009b0       0x2b D:/资料/工作资源/ARM7-SDK-2011-05-20/GNU/arm-elf/lib//libc.a(lib_a-strtol.o)
 .debug_pubnames
                0x000009db       0x39 D:/资料/工作资源/ARM7-SDK-2011-05-20/GNU/arm-elf/lib//libc.a(lib_a-ungetc.o)
 .debug_pubnames
                0x00000a14       0x20 D:/资料/工作资源/ARM7-SDK-2011-05-20/GNU/arm-elf/lib//libc.a(lib_a-callocr.o)
 .debug_pubnames
                0x00000a34       0x2b D:/资料/工作资源/ARM7-SDK-2011-05-20/GNU/arm-elf/lib//libc.a(lib_a-fclose.o)
 .debug_pubnames
                0x00000a5f       0x3e D:/资料/工作资源/ARM7-SDK-2011-05-20/GNU/arm-elf/lib//libc.a(lib_a-gdtoa-gethex.o)
 .debug_pubnames
                0x00000a9d       0x1f D:/资料/工作资源/ARM7-SDK-2011-05-20/GNU/arm-elf/lib//libc.a(lib_a-gdtoa-hexnan.o)
 .debug_pubnames
                0x00000abc       0x27 D:/资料/工作资源/ARM7-SDK-2011-05-20/GNU/arm-elf/lib//libc.a(lib_a-atol.o)
 .debug_pubnames
                0x00000ae3       0x1d D:/资料/工作资源/ARM7-SDK-2011-05-20/GNU/arm-elf/lib//libc.a(lib_a-memcmp.o)
 .debug_pubnames
                0x00000b00       0x1d D:/资料/工作资源/ARM7-SDK-2011-05-20/GNU/arm-elf/lib//libc.a(lib_a-strcat.o)
 .debug_pubnames
                0x00000b1d       0x1d D:/资料/工作资源/ARM7-SDK-2011-05-20/GNU/arm-elf/lib//libc.a(lib_a-strstr.o)
 .debug_pubnames
                0x00000b3a       0x1a D:/资料/工作资源/ARM7-SDK-2011-05-20/GNU/arm-elf/lib//libm.a(lib_a-w_pow.o)
 .debug_pubnames
                0x00000b54       0x24 D:/资料/工作资源/ARM7-SDK-2011-05-20/GNU/arm-elf/lib//libm.a(lib_a-e_pow.o)
 .debug_pubnames
                0x00000b78       0x25 D:/资料/工作资源/ARM7-SDK-2011-05-20/GNU/arm-elf/lib//libm.a(lib_a-e_sqrt.o)
 .debug_pubnames
                0x00000b9d       0x1b D:/资料/工作资源/ARM7-SDK-2011-05-20/GNU/arm-elf/lib//libm.a(lib_a-s_fabs.o)
 .debug_pubnames
                0x00000bb8       0x1d D:/资料/工作资源/ARM7-SDK-2011-05-20/GNU/arm-elf/lib//libm.a(lib_a-s_finite.o)
 .debug_pubnames
                0x00000bd5       0x26 D:/资料/工作资源/ARM7-SDK-2011-05-20/GNU/arm-elf/lib//libm.a(lib_a-s_lib_ver.o)
 .debug_pubnames
                0x00000bfb       0x1e D:/资料/工作资源/ARM7-SDK-2011-05-20/GNU/arm-elf/lib//libm.a(lib_a-s_matherr.o)
 .debug_pubnames
                0x00000c19       0x1b D:/资料/工作资源/ARM7-SDK-2011-05-20/GNU/arm-elf/lib//libm.a(lib_a-s_rint.o)
 .debug_pubnames
                0x00000c34       0x1d D:/资料/工作资源/ARM7-SDK-2011-05-20/GNU/arm-elf/lib//libm.a(lib_a-s_scalbn.o)
 .debug_pubnames
                0x00000c51       0x1f D:/资料/工作资源/ARM7-SDK-2011-05-20/GNU/arm-elf/lib//libm.a(lib_a-s_copysign.o)
 .debug_pubnames
                0x00000c70       0x1e D:/资料/工作资源/ARM7-SDK-2011-05-20/GNU/arm-elf/lib//libc.a(lib_a-errno.o)

.debug_aranges  0x00000000      0x920
 .debug_aranges
                0x00000000       0x20 D:/资料/工作资源/ARM7-SDK-2011-05-20/GNU/arm-elf/lib//libc.a(lib_a-fprintf.o)
 .debug_aranges
                0x00000020       0x20 D:/资料/工作资源/ARM7-SDK-2011-05-20/GNU/arm-elf/lib//libc.a(lib_a-memcpy.o)
 .debug_aranges
                0x00000040       0x20 D:/资料/工作资源/ARM7-SDK-2011-05-20/GNU/arm-elf/lib//libc.a(lib_a-memset.o)
 .debug_aranges
                0x00000060       0x20 D:/资料/工作资源/ARM7-SDK-2011-05-20/GNU/arm-elf/lib//libc.a(lib_a-sprintf.o)
 .debug_aranges
                0x00000080       0x20 D:/资料/工作资源/ARM7-SDK-2011-05-20/GNU/arm-elf/lib//libc.a(lib_a-sscanf.o)
 .debug_aranges
                0x000000a0       0x20 D:/资料/工作资源/ARM7-SDK-2011-05-20/GNU/arm-elf/lib//libc.a(lib_a-strcpy.o)
 .debug_aranges
                0x000000c0       0x20 D:/资料/工作资源/ARM7-SDK-2011-05-20/GNU/arm-elf/lib//libc.a(lib_a-strlen.o)
 .debug_aranges
                0x000000e0       0x20 D:/资料/工作资源/ARM7-SDK-2011-05-20/GNU/arm-elf/lib//libc.a(lib_a-strncmp.o)
 .debug_aranges
                0x00000100       0x20 D:/资料/工作资源/ARM7-SDK-2011-05-20/GNU/arm-elf/lib//libc.a(lib_a-strncpy.o)
 .debug_aranges
                0x00000120       0x20 D:/资料/工作资源/ARM7-SDK-2011-05-20/GNU/arm-elf/lib//libc.a(lib_a-strtoul.o)
 .debug_aranges
                0x00000140       0x20 D:/资料/工作资源/ARM7-SDK-2011-05-20/GNU/arm-elf/lib//libc.a(lib_a-vfprintf.o)
 .debug_aranges
                0x00000160       0x20 D:/资料/工作资源/ARM7-SDK-2011-05-20/GNU/arm-elf/lib//libc.a(lib_a-vfscanf.o)
 .debug_aranges
                0x00000180       0x20 D:/资料/工作资源/ARM7-SDK-2011-05-20/GNU/arm-elf/lib//libc.a(lib_a-wcrtomb.o)
 .debug_aranges
                0x000001a0       0x20 D:/资料/工作资源/ARM7-SDK-2011-05-20/GNU/arm-elf/lib//libc.a(lib_a-wcsrtombs.o)
 .debug_aranges
                0x000001c0       0x20 D:/资料/工作资源/ARM7-SDK-2011-05-20/GNU/arm-elf/lib//libc.a(lib_a-wctomb_r.o)
 .debug_aranges
                0x000001e0       0x20 D:/资料/工作资源/ARM7-SDK-2011-05-20/GNU/arm-elf/lib//libc.a(lib_a-wsetup.o)
 .debug_aranges
                0x00000200       0x20 D:/资料/工作资源/ARM7-SDK-2011-05-20/GNU/arm-elf/lib//libc.a(lib_a-dtoa.o)
 .debug_aranges
                0x00000220       0x20 D:/资料/工作资源/ARM7-SDK-2011-05-20/GNU/arm-elf/lib//libc.a(lib_a-fflush.o)
 .debug_aranges
                0x00000240       0x20 D:/资料/工作资源/ARM7-SDK-2011-05-20/GNU/arm-elf/lib//libc.a(lib_a-findfp.o)
 .debug_aranges
                0x00000260       0x20 D:/资料/工作资源/ARM7-SDK-2011-05-20/GNU/arm-elf/lib//libc.a(lib_a-fread.o)
 .debug_aranges
                0x00000280       0x20 D:/资料/工作资源/ARM7-SDK-2011-05-20/GNU/arm-elf/lib//libc.a(lib_a-freer.o)
 .debug_aranges
                0x000002a0       0x20 D:/资料/工作资源/ARM7-SDK-2011-05-20/GNU/arm-elf/lib//libc.a(lib_a-fvwrite.o)
 .debug_aranges
                0x000002c0       0x20 D:/资料/工作资源/ARM7-SDK-2011-05-20/GNU/arm-elf/lib//libc.a(lib_a-fwalk.o)
 .debug_aranges
                0x000002e0       0x20 D:/资料/工作资源/ARM7-SDK-2011-05-20/GNU/arm-elf/lib//libc.a(lib_a-iswspace.o)
 .debug_aranges
                0x00000300       0x20 D:/资料/工作资源/ARM7-SDK-2011-05-20/GNU/arm-elf/lib//libc.a(lib_a-locale.o)
 .debug_aranges
                0x00000320       0x20 D:/资料/工作资源/ARM7-SDK-2011-05-20/GNU/arm-elf/lib//libc.a(lib_a-makebuf.o)
 .debug_aranges
                0x00000340       0x20 D:/资料/工作资源/ARM7-SDK-2011-05-20/GNU/arm-elf/lib//libc.a(lib_a-mallocr.o)
 .debug_aranges
                0x00000360       0x20 D:/资料/工作资源/ARM7-SDK-2011-05-20/GNU/arm-elf/lib//libc.a(lib_a-mbrtowc.o)
 .debug_aranges
                0x00000380       0x20 D:/资料/工作资源/ARM7-SDK-2011-05-20/GNU/arm-elf/lib//libc.a(lib_a-mbtowc_r.o)
 .debug_aranges
                0x000003a0       0x20 D:/资料/工作资源/ARM7-SDK-2011-05-20/GNU/arm-elf/lib//libc.a(lib_a-memchr.o)
 .debug_aranges
                0x000003c0       0x20 D:/资料/工作资源/ARM7-SDK-2011-05-20/GNU/arm-elf/lib//libc.a(lib_a-memmove.o)
 .debug_aranges
                0x000003e0       0x20 D:/资料/工作资源/ARM7-SDK-2011-05-20/GNU/arm-elf/lib//libc.a(lib_a-mlock.o)
 .debug_aranges
                0x00000400       0x20 D:/资料/工作资源/ARM7-SDK-2011-05-20/GNU/arm-elf/lib//libc.a(lib_a-mprec.o)
 .debug_aranges
                0x00000420       0x20 D:/资料/工作资源/ARM7-SDK-2011-05-20/GNU/arm-elf/lib//libc.a(lib_a-reallocr.o)
 .debug_aranges
                0x00000440       0x20 D:/资料/工作资源/ARM7-SDK-2011-05-20/GNU/arm-elf/lib//libc.a(lib_a-refill.o)
 .debug_aranges
                0x00000460       0x20 D:/资料/工作资源/ARM7-SDK-2011-05-20/GNU/arm-elf/lib//libc.a(lib_a-s_isinfd.o)
 .debug_aranges
                0x00000480       0x20 D:/资料/工作资源/ARM7-SDK-2011-05-20/GNU/arm-elf/lib//libc.a(lib_a-s_isnand.o)
 .debug_aranges
                0x000004a0       0x20 D:/资料/工作资源/ARM7-SDK-2011-05-20/GNU/arm-elf/lib//libc.a(lib_a-sccl.o)
 .debug_aranges
                0x000004c0       0x20 D:/资料/工作资源/ARM7-SDK-2011-05-20/GNU/arm-elf/lib//libc.a(lib_a-sf_nan.o)
 .debug_aranges
                0x000004e0       0x20 D:/资料/工作资源/ARM7-SDK-2011-05-20/GNU/arm-elf/lib//libc.a(lib_a-stdio.o)
 .debug_aranges
                0x00000500       0x20 D:/资料/工作资源/ARM7-SDK-2011-05-20/GNU/arm-elf/lib//libc.a(lib_a-strcmp.o)
 .debug_aranges
                0x00000520       0x20 D:/资料/工作资源/ARM7-SDK-2011-05-20/GNU/arm-elf/lib//libc.a(lib_a-strtod.o)
 .debug_aranges
                0x00000540       0x20 D:/资料/工作资源/ARM7-SDK-2011-05-20/GNU/arm-elf/lib//libc.a(lib_a-strtol.o)
 .debug_aranges
                0x00000560       0x20 D:/资料/工作资源/ARM7-SDK-2011-05-20/GNU/arm-elf/lib//libc.a(lib_a-ungetc.o)
 .debug_aranges
                0x00000580       0x20 D:/资料/工作资源/ARM7-SDK-2011-05-20/GNU/arm-elf/lib//libc.a(lib_a-callocr.o)
 .debug_aranges
                0x000005a0       0x20 D:/资料/工作资源/ARM7-SDK-2011-05-20/GNU/arm-elf/lib//libc.a(lib_a-fclose.o)
 .debug_aranges
                0x000005c0       0x20 D:/资料/工作资源/ARM7-SDK-2011-05-20/GNU/arm-elf/lib//libc.a(lib_a-gdtoa-gethex.o)
 .debug_aranges
                0x000005e0       0x20 D:/资料/工作资源/ARM7-SDK-2011-05-20/GNU/arm-elf/lib//libc.a(lib_a-gdtoa-hexnan.o)
 .debug_aranges
                0x00000600       0x20 D:/资料/工作资源/ARM7-SDK-2011-05-20/GNU/arm-elf/lib//libgcc.a(_udivsi3.o)
 .debug_aranges
                0x00000620       0x20 D:/资料/工作资源/ARM7-SDK-2011-05-20/GNU/arm-elf/lib//libgcc.a(_divsi3.o)
 .debug_aranges
                0x00000640       0x20 D:/资料/工作资源/ARM7-SDK-2011-05-20/GNU/arm-elf/lib//libgcc.a(_umodsi3.o)
 .debug_aranges
                0x00000660       0x20 D:/资料/工作资源/ARM7-SDK-2011-05-20/GNU/arm-elf/lib//libgcc.a(_modsi3.o)
 .debug_aranges
                0x00000680       0x20 D:/资料/工作资源/ARM7-SDK-2011-05-20/GNU/arm-elf/lib//libgcc.a(_dvmd_tls.o)
 .debug_aranges
                0x000006a0       0x20 D:/资料/工作资源/ARM7-SDK-2011-05-20/GNU/arm-elf/lib//libgcc.a(_addsubdf3.o)
 .debug_aranges
                0x000006c0       0x20 D:/资料/工作资源/ARM7-SDK-2011-05-20/GNU/arm-elf/lib//libgcc.a(_muldivdf3.o)
 .debug_aranges
                0x000006e0       0x20 D:/资料/工作资源/ARM7-SDK-2011-05-20/GNU/arm-elf/lib//libgcc.a(_cmpdf2.o)
 .debug_aranges
                0x00000700       0x20 D:/资料/工作资源/ARM7-SDK-2011-05-20/GNU/arm-elf/lib//libgcc.a(_fixdfsi.o)
 .debug_aranges
                0x00000720       0x20 D:/资料/工作资源/ARM7-SDK-2011-05-20/GNU/arm-elf/lib//libgcc.a(_fixunsdfsi.o)
 .debug_aranges
                0x00000740       0x20 D:/资料/工作资源/ARM7-SDK-2011-05-20/GNU/arm-elf/lib//libgcc.a(_truncdfsf2.o)
 .debug_aranges
                0x00000760       0x20 D:/资料/工作资源/ARM7-SDK-2011-05-20/GNU/arm-elf/lib//libc.a(lib_a-atol.o)
 .debug_aranges
                0x00000780       0x20 D:/资料/工作资源/ARM7-SDK-2011-05-20/GNU/arm-elf/lib//libc.a(lib_a-memcmp.o)
 .debug_aranges
                0x000007a0       0x20 D:/资料/工作资源/ARM7-SDK-2011-05-20/GNU/arm-elf/lib//libc.a(lib_a-strcat.o)
 .debug_aranges
                0x000007c0       0x20 D:/资料/工作资源/ARM7-SDK-2011-05-20/GNU/arm-elf/lib//libc.a(lib_a-strstr.o)
 .debug_aranges
                0x000007e0       0x20 D:/资料/工作资源/ARM7-SDK-2011-05-20/GNU/arm-elf/lib//libm.a(lib_a-w_pow.o)
 .debug_aranges
                0x00000800       0x20 D:/资料/工作资源/ARM7-SDK-2011-05-20/GNU/arm-elf/lib//libm.a(lib_a-e_pow.o)
 .debug_aranges
                0x00000820       0x20 D:/资料/工作资源/ARM7-SDK-2011-05-20/GNU/arm-elf/lib//libm.a(lib_a-e_sqrt.o)
 .debug_aranges
                0x00000840       0x20 D:/资料/工作资源/ARM7-SDK-2011-05-20/GNU/arm-elf/lib//libm.a(lib_a-s_fabs.o)
 .debug_aranges
                0x00000860       0x20 D:/资料/工作资源/ARM7-SDK-2011-05-20/GNU/arm-elf/lib//libm.a(lib_a-s_finite.o)
 .debug_aranges
                0x00000880       0x20 D:/资料/工作资源/ARM7-SDK-2011-05-20/GNU/arm-elf/lib//libm.a(lib_a-s_matherr.o)
 .debug_aranges
                0x000008a0       0x20 D:/资料/工作资源/ARM7-SDK-2011-05-20/GNU/arm-elf/lib//libm.a(lib_a-s_rint.o)
 .debug_aranges
                0x000008c0       0x20 D:/资料/工作资源/ARM7-SDK-2011-05-20/GNU/arm-elf/lib//libm.a(lib_a-s_scalbn.o)
 .debug_aranges
                0x000008e0       0x20 D:/资料/工作资源/ARM7-SDK-2011-05-20/GNU/arm-elf/lib//libm.a(lib_a-s_copysign.o)
 .debug_aranges
                0x00000900       0x20 D:/资料/工作资源/ARM7-SDK-2011-05-20/GNU/arm-elf/lib//libc.a(lib_a-errno.o)

.debug_str      0x00000000     0x23ac
 .debug_str     0x00000000      0x440 D:/资料/工作资源/ARM7-SDK-2011-05-20/GNU/arm-elf/lib//libc.a(lib_a-fprintf.o)
                                0x4c9 (size before relaxing)
 .debug_str     0x00000440       0x9f D:/资料/工作资源/ARM7-SDK-2011-05-20/GNU/arm-elf/lib//libc.a(lib_a-memcpy.o)
                                 0xcb (size before relaxing)
 .debug_str     0x000004df       0x54 D:/资料/工作资源/ARM7-SDK-2011-05-20/GNU/arm-elf/lib//libc.a(lib_a-memset.o)
                                0x115 (size before relaxing)
 .debug_str     0x00000533       0x4c D:/资料/工作资源/ARM7-SDK-2011-05-20/GNU/arm-elf/lib//libc.a(lib_a-sprintf.o)
                                0x4e0 (size before relaxing)
 .debug_str     0x0000057f       0x51 D:/资料/工作资源/ARM7-SDK-2011-05-20/GNU/arm-elf/lib//libc.a(lib_a-sscanf.o)
                                0x4ec (size before relaxing)
 .debug_str     0x000005d0       0x40 D:/资料/工作资源/ARM7-SDK-2011-05-20/GNU/arm-elf/lib//libc.a(lib_a-strcpy.o)
                                0x11c (size before relaxing)
 .debug_str     0x00000610       0x40 D:/资料/工作资源/ARM7-SDK-2011-05-20/GNU/arm-elf/lib//libc.a(lib_a-strlen.o)
                                0x114 (size before relaxing)
 .debug_str     0x00000650       0x42 D:/资料/工作资源/ARM7-SDK-2011-05-20/GNU/arm-elf/lib//libc.a(lib_a-strncmp.o)
                                0x103 (size before relaxing)
 .debug_str     0x00000692       0x42 D:/资料/工作资源/ARM7-SDK-2011-05-20/GNU/arm-elf/lib//libc.a(lib_a-strncpy.o)
                                0x12b (size before relaxing)
 .debug_str     0x000006d4       0xa4 D:/资料/工作资源/ARM7-SDK-2011-05-20/GNU/arm-elf/lib//libc.a(lib_a-strtoul.o)
                                0x4d8 (size before relaxing)
 .debug_str     0x00000778      0x1b0 D:/资料/工作资源/ARM7-SDK-2011-05-20/GNU/arm-elf/lib//libc.a(lib_a-vfprintf.o)
                                0x6b3 (size before relaxing)
 .debug_str     0x00000928      0x11f D:/资料/工作资源/ARM7-SDK-2011-05-20/GNU/arm-elf/lib//libc.a(lib_a-vfscanf.o)
                                0x62b (size before relaxing)
 .debug_str     0x00000a47       0x54 D:/资料/工作资源/ARM7-SDK-2011-05-20/GNU/arm-elf/lib//libc.a(lib_a-wcrtomb.o)
                                0x4d4 (size before relaxing)
 .debug_str     0x00000a9b       0x5d D:/资料/工作资源/ARM7-SDK-2011-05-20/GNU/arm-elf/lib//libc.a(lib_a-wcsrtombs.o)
                                0x4e9 (size before relaxing)
 .debug_str     0x00000af8       0x62 D:/资料/工作资源/ARM7-SDK-2011-05-20/GNU/arm-elf/lib//libc.a(lib_a-wctomb_r.o)
                                0x4c9 (size before relaxing)
 .debug_str     0x00000b5a       0x42 D:/资料/工作资源/ARM7-SDK-2011-05-20/GNU/arm-elf/lib//libc.a(lib_a-wsetup.o)
                                0x4ad (size before relaxing)
 .debug_str     0x00000b9c       0x70 D:/资料/工作资源/ARM7-SDK-2011-05-20/GNU/arm-elf/lib//libc.a(lib_a-ctype_.o)
                                 0x8d (size before relaxing)
 .debug_str     0x00000c0c       0xfa D:/资料/工作资源/ARM7-SDK-2011-05-20/GNU/arm-elf/lib//libc.a(lib_a-dtoa.o)
                                0x5a4 (size before relaxing)
 .debug_str     0x00000d06       0x60 D:/资料/工作资源/ARM7-SDK-2011-05-20/GNU/arm-elf/lib//libc.a(lib_a-fflush.o)
                                0x4cb (size before relaxing)
 .debug_str     0x00000d66      0x100 D:/资料/工作资源/ARM7-SDK-2011-05-20/GNU/arm-elf/lib//libc.a(lib_a-findfp.o)
                                0x597 (size before relaxing)
 .debug_str     0x00000e66       0x68 D:/资料/工作资源/ARM7-SDK-2011-05-20/GNU/arm-elf/lib//libc.a(lib_a-fread.o)
                                0x4f1 (size before relaxing)
 .debug_str     0x00000ece      0x159 D:/资料/工作资源/ARM7-SDK-2011-05-20/GNU/arm-elf/lib//libc.a(lib_a-freer.o)
                                0x5e6 (size before relaxing)
 .debug_str     0x00001027       0x64 D:/资料/工作资源/ARM7-SDK-2011-05-20/GNU/arm-elf/lib//libc.a(lib_a-fvwrite.o)
                                0x512 (size before relaxing)
 .debug_str     0x0000108b       0x5c D:/资料/工作资源/ARM7-SDK-2011-05-20/GNU/arm-elf/lib//libc.a(lib_a-fwalk.o)
                                0x4d8 (size before relaxing)
 .debug_str     0x000010e7       0x74 D:/资料/工作资源/ARM7-SDK-2011-05-20/GNU/arm-elf/lib//libc.a(lib_a-impure.o)
                                0x4b1 (size before relaxing)
 .debug_str     0x0000115b       0x4b D:/资料/工作资源/ARM7-SDK-2011-05-20/GNU/arm-elf/lib//libc.a(lib_a-iswspace.o)
                                0x122 (size before relaxing)
 .debug_str     0x000011a6      0x1b0 D:/资料/工作资源/ARM7-SDK-2011-05-20/GNU/arm-elf/lib//libc.a(lib_a-locale.o)
                                0x640 (size before relaxing)
 .debug_str     0x00001356      0x117 D:/资料/工作资源/ARM7-SDK-2011-05-20/GNU/arm-elf/lib//libc.a(lib_a-makebuf.o)
                                0x594 (size before relaxing)
 .debug_str     0x0000146d       0xe9 D:/资料/工作资源/ARM7-SDK-2011-05-20/GNU/arm-elf/lib//libc.a(lib_a-mallocr.o)
                                0x694 (size before relaxing)
 .debug_str     0x00001556       0x4d D:/资料/工作资源/ARM7-SDK-2011-05-20/GNU/arm-elf/lib//libc.a(lib_a-mbrtowc.o)
                                0x4d4 (size before relaxing)
 .debug_str     0x000015a3       0x4b D:/资料/工作资源/ARM7-SDK-2011-05-20/GNU/arm-elf/lib//libc.a(lib_a-mbtowc_r.o)
                                0x4b9 (size before relaxing)
 .debug_str     0x000015ee       0x4e D:/资料/工作资源/ARM7-SDK-2011-05-20/GNU/arm-elf/lib//libc.a(lib_a-memchr.o)
                                0x122 (size before relaxing)
 .debug_str     0x0000163c       0x4b D:/资料/工作资源/ARM7-SDK-2011-05-20/GNU/arm-elf/lib//libc.a(lib_a-memmove.o)
                                0x134 (size before relaxing)
 .debug_str     0x00001687       0x6b D:/资料/工作资源/ARM7-SDK-2011-05-20/GNU/arm-elf/lib//libc.a(lib_a-mlock.o)
                                0x4ba (size before relaxing)
 .debug_str     0x000016f2       0xf6 D:/资料/工作资源/ARM7-SDK-2011-05-20/GNU/arm-elf/lib//libc.a(lib_a-mprec.o)
                                0x5b1 (size before relaxing)
 .debug_str     0x000017e8       0x59 D:/资料/工作资源/ARM7-SDK-2011-05-20/GNU/arm-elf/lib//libc.a(lib_a-reallocr.o)
                                0x566 (size before relaxing)
 .debug_str     0x00001841       0x4b D:/资料/工作资源/ARM7-SDK-2011-05-20/GNU/arm-elf/lib//libc.a(lib_a-refill.o)
                                0x4c9 (size before relaxing)
 .debug_str     0x0000188c       0xa1 D:/资料/工作资源/ARM7-SDK-2011-05-20/GNU/arm-elf/lib//libc.a(lib_a-s_isinfd.o)
                                0x160 (size before relaxing)
 .debug_str     0x0000192d       0x44 D:/资料/工作资源/ARM7-SDK-2011-05-20/GNU/arm-elf/lib//libc.a(lib_a-s_isnand.o)
                                0x160 (size before relaxing)
 .debug_str     0x00001971       0x4d D:/资料/工作资源/ARM7-SDK-2011-05-20/GNU/arm-elf/lib//libc.a(lib_a-sccl.o)
                                0x112 (size before relaxing)
 .debug_str     0x000019be       0x3e D:/资料/工作资源/ARM7-SDK-2011-05-20/GNU/arm-elf/lib//libc.a(lib_a-sf_nan.o)
                                0x124 (size before relaxing)
 .debug_str     0x000019fc       0x67 D:/资料/工作资源/ARM7-SDK-2011-05-20/GNU/arm-elf/lib//libc.a(lib_a-stdio.o)
                                0x4e0 (size before relaxing)
 .debug_str     0x00001a63       0x40 D:/资料/工作资源/ARM7-SDK-2011-05-20/GNU/arm-elf/lib//libc.a(lib_a-strcmp.o)
                                 0xfa (size before relaxing)
 .debug_str     0x00001aa3      0x1bc D:/资料/工作资源/ARM7-SDK-2011-05-20/GNU/arm-elf/lib//libc.a(lib_a-strtod.o)
                                0x68e (size before relaxing)
 .debug_str     0x00001c5f       0x4a D:/资料/工作资源/ARM7-SDK-2011-05-20/GNU/arm-elf/lib//libc.a(lib_a-strtol.o)
                                0x4d5 (size before relaxing)
 .debug_str     0x00001ca9       0x53 D:/资料/工作资源/ARM7-SDK-2011-05-20/GNU/arm-elf/lib//libc.a(lib_a-ungetc.o)
                                0x4c3 (size before relaxing)
 .debug_str     0x00001cfc       0x19 D:/资料/工作资源/ARM7-SDK-2011-05-20/GNU/arm-elf/lib//libc.a(lib_a-callocr.o)
                                0x4e5 (size before relaxing)
 .debug_str     0x00001d15       0x49 D:/资料/工作资源/ARM7-SDK-2011-05-20/GNU/arm-elf/lib//libc.a(lib_a-fclose.o)
                                0x4b9 (size before relaxing)
 .debug_str     0x00001d5e       0xd6 D:/资料/工作资源/ARM7-SDK-2011-05-20/GNU/arm-elf/lib//libc.a(lib_a-gdtoa-gethex.o)
                                0x663 (size before relaxing)
 .debug_str     0x00001e34       0x50 D:/资料/工作资源/ARM7-SDK-2011-05-20/GNU/arm-elf/lib//libc.a(lib_a-gdtoa-hexnan.o)
                                0x23c (size before relaxing)
 .debug_str     0x00001e84       0x44 D:/资料/工作资源/ARM7-SDK-2011-05-20/GNU/arm-elf/lib//libc.a(lib_a-atol.o)
                                0x493 (size before relaxing)
 .debug_str     0x00001ec8       0x40 D:/资料/工作资源/ARM7-SDK-2011-05-20/GNU/arm-elf/lib//libc.a(lib_a-memcmp.o)
                                0x101 (size before relaxing)
 .debug_str     0x00001f08       0x4b D:/资料/工作资源/ARM7-SDK-2011-05-20/GNU/arm-elf/lib//libc.a(lib_a-strcat.o)
                                0x105 (size before relaxing)
 .debug_str     0x00001f53       0x51 D:/资料/工作资源/ARM7-SDK-2011-05-20/GNU/arm-elf/lib//libc.a(lib_a-strstr.o)
                                0x112 (size before relaxing)
 .debug_str     0x00001fa4       0xd9 D:/资料/工作资源/ARM7-SDK-2011-05-20/GNU/arm-elf/lib//libm.a(lib_a-w_pow.o)
                                0x193 (size before relaxing)
 .debug_str     0x0000207d       0xa0 D:/资料/工作资源/ARM7-SDK-2011-05-20/GNU/arm-elf/lib//libm.a(lib_a-e_pow.o)
                                0x1bf (size before relaxing)
 .debug_str     0x0000211d       0x4b D:/资料/工作资源/ARM7-SDK-2011-05-20/GNU/arm-elf/lib//libm.a(lib_a-e_sqrt.o)
                                0x16f (size before relaxing)
 .debug_str     0x00002168       0x41 D:/资料/工作资源/ARM7-SDK-2011-05-20/GNU/arm-elf/lib//libm.a(lib_a-s_fabs.o)
                                0x156 (size before relaxing)
 .debug_str     0x000021a9       0x3b D:/资料/工作资源/ARM7-SDK-2011-05-20/GNU/arm-elf/lib//libm.a(lib_a-s_finite.o)
                                0x15e (size before relaxing)
 .debug_str     0x000021e4       0x3c D:/资料/工作资源/ARM7-SDK-2011-05-20/GNU/arm-elf/lib//libm.a(lib_a-s_lib_ver.o)
                                0x176 (size before relaxing)
 .debug_str     0x00002220       0x44 D:/资料/工作资源/ARM7-SDK-2011-05-20/GNU/arm-elf/lib//libm.a(lib_a-s_matherr.o)
                                0x148 (size before relaxing)
 .debug_str     0x00002264       0x44 D:/资料/工作资源/ARM7-SDK-2011-05-20/GNU/arm-elf/lib//libm.a(lib_a-s_rint.o)
                                0x16f (size before relaxing)
 .debug_str     0x000022a8       0x4f D:/资料/工作资源/ARM7-SDK-2011-05-20/GNU/arm-elf/lib//libm.a(lib_a-s_scalbn.o)
                                0x17f (size before relaxing)
 .debug_str     0x000022f7       0x46 D:/资料/工作资源/ARM7-SDK-2011-05-20/GNU/arm-elf/lib//libm.a(lib_a-s_copysign.o)
                                0x15d (size before relaxing)
 .debug_str     0x0000233d       0x6f D:/资料/工作资源/ARM7-SDK-2011-05-20/GNU/arm-elf/lib//libc.a(lib_a-errno.o)
                                0x499 (size before relaxing)

.debug_ranges   0x00000000      0x6f0
 .debug_ranges  0x00000000      0x158 D:/资料/工作资源/ARM7-SDK-2011-05-20/GNU/arm-elf/lib//libc.a(lib_a-vfprintf.o)
 .debug_ranges  0x00000158       0xc0 D:/资料/工作资源/ARM7-SDK-2011-05-20/GNU/arm-elf/lib//libc.a(lib_a-vfscanf.o)
 .debug_ranges  0x00000218       0x28 D:/资料/工作资源/ARM7-SDK-2011-05-20/GNU/arm-elf/lib//libc.a(lib_a-wcsrtombs.o)
 .debug_ranges  0x00000240       0x48 D:/资料/工作资源/ARM7-SDK-2011-05-20/GNU/arm-elf/lib//libc.a(lib_a-wctomb_r.o)
 .debug_ranges  0x00000288       0x30 D:/资料/工作资源/ARM7-SDK-2011-05-20/GNU/arm-elf/lib//libc.a(lib_a-fflush.o)
 .debug_ranges  0x000002b8       0x18 D:/资料/工作资源/ARM7-SDK-2011-05-20/GNU/arm-elf/lib//libc.a(lib_a-fread.o)
 .debug_ranges  0x000002d0       0x18 D:/资料/工作资源/ARM7-SDK-2011-05-20/GNU/arm-elf/lib//libc.a(lib_a-fvwrite.o)
 .debug_ranges  0x000002e8       0x40 D:/资料/工作资源/ARM7-SDK-2011-05-20/GNU/arm-elf/lib//libc.a(lib_a-fwalk.o)
 .debug_ranges  0x00000328       0x60 D:/资料/工作资源/ARM7-SDK-2011-05-20/GNU/arm-elf/lib//libc.a(lib_a-mallocr.o)
 .debug_ranges  0x00000388       0x70 D:/资料/工作资源/ARM7-SDK-2011-05-20/GNU/arm-elf/lib//libc.a(lib_a-reallocr.o)
 .debug_ranges  0x000003f8       0x40 D:/资料/工作资源/ARM7-SDK-2011-05-20/GNU/arm-elf/lib//libc.a(lib_a-strtod.o)
 .debug_ranges  0x00000438       0x30 D:/资料/工作资源/ARM7-SDK-2011-05-20/GNU/arm-elf/lib//libc.a(lib_a-callocr.o)
 .debug_ranges  0x00000468       0x58 D:/资料/工作资源/ARM7-SDK-2011-05-20/GNU/arm-elf/lib//libc.a(lib_a-gdtoa-gethex.o)
 .debug_ranges  0x000004c0      0x140 D:/资料/工作资源/ARM7-SDK-2011-05-20/GNU/arm-elf/lib//libm.a(lib_a-e_pow.o)
 .debug_ranges  0x00000600       0x18 D:/资料/工作资源/ARM7-SDK-2011-05-20/GNU/arm-elf/lib//libm.a(lib_a-e_sqrt.o)
 .debug_ranges  0x00000618       0x38 D:/资料/工作资源/ARM7-SDK-2011-05-20/GNU/arm-elf/lib//libm.a(lib_a-s_fabs.o)
 .debug_ranges  0x00000650       0x50 D:/资料/工作资源/ARM7-SDK-2011-05-20/GNU/arm-elf/lib//libm.a(lib_a-s_rint.o)
 .debug_ranges  0x000006a0       0x38 D:/资料/工作资源/ARM7-SDK-2011-05-20/GNU/arm-elf/lib//libm.a(lib_a-s_scalbn.o)
 .debug_ranges  0x000006d8       0x18 D:/资料/工作资源/ARM7-SDK-2011-05-20/GNU/arm-elf/lib//libm.a(lib_a-s_copysign.o)
